Certificate:
    Data:
        Version: 3 (0x2)
        Serial Number:
            17:f3:7a:4a:2b:87:ae:73:ff:16:5f:37:b6:62:bd:bb:68:6b:bc:10
        Signature Algorithm: ecdsa-with-SHA256
        Issuer: CN = Open Screen Certificate
        Validity
            Not Before: Jan 18 02:05:29 2024 GMT
            Not After : Jan 15 02:05:29 2034 GMT
        Subject: CN = Open Screen Certificate
        Subject Public Key Info:
            Public Key Algorithm: id-ecPublicKey
                Public-Key: (256 bit)
                pub:
                    04:42:8a:75:3b:89:02:17:c3:97:d9:35:3c:ac:9a:
                    46:a4:46:fa:17:cc:5d:0a:4c:6a:a3:88:7c:ff:44:
                    c5:96:af:6d:3b:17:76:d1:59:54:23:cc:16:05:96:
                    29:9e:2c:f4:a7:9b:c4:42:3b:21:4e:ac:bd:8f:57:
                    92:2b:fe:8f:85
                ASN1 OID: prime256v1
                NIST CURVE: P-256
        X509v3 extensions:
            X509v3 Basic Constraints: 
                CA:FALSE
            X509v3 Subject Key Identifier: 
                36:4C:5F:39:E4:04:BD:B0:DB:00:F4:0A:2B:8B:A4:2D:0C:0A:F0:3B
    Signature Algorithm: ecdsa-with-SHA256
    Signature Value:
        30:44:02:20:6f:64:b7:23:00:c9:7e:7a:65:17:bb:ba:46:88:
        c7:f1:5e:6e:08:7b:8b:cc:0b:17:19:41:b9:0d:cc:25:07:18:
        02:20:02:94:ba:1b:eb:1a:46:4a:f6:96:7c:a5:79:1d:8e:68:
        2f:59:43:ff:64:4e:e0:3e:c0:d7:30:08:c9:25:2c:a7
-----BEGIN CERTIFICATE-----
MIIBcTCCARigAwIBAgIUF/N6SiuHrnP/Fl83tmK9u2hrvBAwCgYIKoZIzj0EAwIw
IjEgMB4GA1UEAwwXT3BlbiBTY3JlZW4gQ2VydGlmaWNhdGUwHhcNMjQwMTE4MDIw
NTI5WhcNMzQwMTE1MDIwNTI5WjAiMSAwHgYDVQQDDBdPcGVuIFNjcmVlbiBDZXJ0
aWZpY2F0ZTBZMBMGByqGSM49AgEGCCqGSM49AwEHA0IABEKKdTuJAhfDl9k1PKya
RqRG+hfMXQpMaqOIfP9ExZavbTsXdtFZVCPMFgWWKZ4s9KebxEI7IU6svY9Xkiv+
j4WjLDAqMAkGA1UdEwQCMAAwHQYDVR0OBBYEFDZMXznkBL2w2wD0CiuLpC0MCvA7
MAoGCCqGSM49BAMCA0cAMEQCIG9ktyMAyX56ZRe7ukaIx/Febgh7i8wLFxlBuQ3M
JQcYAiAClLob6xpGSvaWfKV5HY5oL1lD/2RO4D7A1zAIySUspw==
-----END CERTIFICATE-----
