EXPORTS
    ?AddWithCarry@?$BigUnsigned@$03@strings_internal@absl@@AAEXHI@Z
    ?AddWithCarry@?$BigUnsigned@$03@strings_internal@absl@@AAEXH_K@Z
    ?AddWithCarry@?$BigUnsigned@$0FE@@strings_internal@absl@@AAEXHI@Z
    ?AddWithCarry@?$BigUnsigned@$0FE@@strings_internal@absl@@AAEXH_K@Z
    ?AppendPieces@strings_internal@absl@@YAXPAV?$basic_string@DU?$char_traits@D@__1@std@@V?$allocator@D@23@@__1@std@@V?$initializer_list@Vstring_view@absl@@@5@@Z
    ?ApplySubstitutions@strings_internal@absl@@YAHVstring_view@2@PAV?$vector@UViableSubstitution@strings_internal@absl@@V?$allocator@UViableSubstitution@strings_internal@absl@@@__1@std@@@__1@std@@PAV?$basic_string@DU?$char_traits@D@__1@std@@V?$allocator@D@23@@56@@Z
    ?AsciiStrToLower@absl@@YAXPAV?$basic_string@DU?$char_traits@D@__1@std@@V?$allocator@D@23@@__1@std@@@Z
    ?AsciiStrToUpper@absl@@YAXPAV?$basic_string@DU?$char_traits@D@__1@std@@V?$allocator@D@23@@__1@std@@@Z
    ?Base64Escape@absl@@YA?AV?$basic_string@DU?$char_traits@D@__1@std@@V?$allocator@D@23@@__1@std@@Vstring_view@1@@Z
    ?Base64Escape@absl@@YAXVstring_view@1@PAV?$basic_string@DU?$char_traits@D@__1@std@@V?$allocator@D@23@@__1@std@@@Z
    ?Base64EscapeInternal@strings_internal@absl@@YAIPBEIPADIPBD_N@Z
    ?Base64Unescape@absl@@YA_NVstring_view@1@PAV?$basic_string@DU?$char_traits@D@__1@std@@V?$allocator@D@23@@__1@std@@@Z
    ?BytesToHexString@absl@@YA?AV?$basic_string@DU?$char_traits@D@__1@std@@V?$allocator@D@23@@__1@std@@Vstring_view@1@@Z
    ?CEscape@absl@@YA?AV?$basic_string@DU?$char_traits@D@__1@std@@V?$allocator@D@23@@__1@std@@Vstring_view@1@@Z
    ?CHexEscape@absl@@YA?AV?$basic_string@DU?$char_traits@D@__1@std@@V?$allocator@D@23@@__1@std@@Vstring_view@1@@Z
    ?CUnescape@absl@@YA_NVstring_view@1@PAV?$basic_string@DU?$char_traits@D@__1@std@@V?$allocator@D@23@@__1@std@@1@Z
    ?CalculateBase64EscapedLenInternal@strings_internal@absl@@YAII_N@Z
    ?CatPieces@strings_internal@absl@@YA?AV?$basic_string@DU?$char_traits@D@__1@std@@V?$allocator@D@23@@__1@std@@V?$initializer_list@Vstring_view@absl@@@5@@Z
    ?CityHash32@hash_internal@absl@@YAIPBDI@Z
    ?CityHash64@hash_internal@absl@@YA_KPBDI@Z
    ?CityHash64WithSeed@hash_internal@absl@@YA_KPBDI_K@Z
    ?CityHash64WithSeeds@hash_internal@absl@@YA_KPBDI_K1@Z
    ?ClearCurrentThreadIdentity@base_internal@absl@@YAXXZ
    ?CombineLargeContiguousImpl32@CityHashState@hash_internal@absl@@CA_K_KPBEI@Z
    ?CombineLargeContiguousImpl64@CityHashState@hash_internal@absl@@CA_K_KPBEI@Z
    ?DecodeWaitCycles@SpinLock@base_internal@absl@@KA_KI@Z
    ?Digits10@?$BigUnsigned@$03@strings_internal@absl@@SAHXZ
    ?Digits10@?$BigUnsigned@$0FE@@strings_internal@absl@@SAHXZ
    ?DummyFunction@?$AtomicHook@P6AXPBDH000@Z@base_internal@absl@@CAXPBDH000@Z
    ?DummyFunction@?$AtomicHook@P6AXPBX_J@Z@base_internal@absl@@CAXPBX_J@Z
    ?EncodeUTF8Char@strings_internal@absl@@YAIPAD_U@Z
    ?EncodeWaitCycles@SpinLock@base_internal@absl@@KAI_J0@Z
    ?EndsWithIgnoreCase@absl@@YA_NVstring_view@1@0@Z
    ?EqualsIgnoreCase@absl@@YA_NVstring_view@1@0@Z
    ?FastIntToBuffer@numbers_internal@absl@@YAPADHPAD@Z
    ?FastIntToBuffer@numbers_internal@absl@@YAPADIPAD@Z
    ?FastIntToBuffer@numbers_internal@absl@@YAPAD_JPAD@Z
    ?FastIntToBuffer@numbers_internal@absl@@YAPAD_KPAD@Z
    ?Find@ByAnyChar@absl@@QBE?AVstring_view@2@V32@I@Z
    ?Find@ByChar@absl@@QBE?AVstring_view@2@V32@I@Z
    ?Find@ByLength@absl@@QBE?AVstring_view@2@V32@I@Z
    ?Find@ByString@absl@@QBE?AVstring_view@2@V32@I@Z
    ?FiveToTheNth@?$BigUnsigned@$03@strings_internal@absl@@SA?AV123@H@Z
    ?FiveToTheNth@?$BigUnsigned@$0FE@@strings_internal@absl@@SA?AV123@H@Z
    ?Frequency@CycleClock@base_internal@absl@@SANXZ
    ?Frequency@UnscaledCycleClock@base_internal@absl@@CANXZ
    ?GetTID@base_internal@absl@@YAIXZ
    ?GetWord@?$BigUnsigned@$03@strings_internal@absl@@QBEIH@Z
    ?GetWord@?$BigUnsigned@$0FE@@strings_internal@absl@@QBEIH@Z
    ?HexStringToBytes@absl@@YA?AV?$basic_string@DU?$char_traits@D@__1@std@@V?$allocator@D@23@@__1@std@@Vstring_view@1@@Z
    ?MultiplyBy@?$BigUnsigned@$03@strings_internal@absl@@AAEXHPBI@Z
    ?MultiplyBy@?$BigUnsigned@$03@strings_internal@absl@@QAEXI@Z
    ?MultiplyBy@?$BigUnsigned@$03@strings_internal@absl@@QAEX_K@Z
    ?MultiplyBy@?$BigUnsigned@$0FE@@strings_internal@absl@@AAEXHPBI@Z
    ?MultiplyBy@?$BigUnsigned@$0FE@@strings_internal@absl@@QAEXI@Z
    ?MultiplyBy@?$BigUnsigned@$0FE@@strings_internal@absl@@QAEX_K@Z
    ?MultiplyByFiveToTheNth@?$BigUnsigned@$03@strings_internal@absl@@QAEXH@Z
    ?MultiplyByFiveToTheNth@?$BigUnsigned@$0FE@@strings_internal@absl@@QAEXH@Z
    ?MultiplyByTenToTheNth@?$BigUnsigned@$03@strings_internal@absl@@QAEXH@Z
    ?MultiplyByTenToTheNth@?$BigUnsigned@$0FE@@strings_internal@absl@@QAEXH@Z
    ?MultiplyStep@?$BigUnsigned@$03@strings_internal@absl@@AAEXHPBIHH@Z
    ?MultiplyStep@?$BigUnsigned@$0FE@@strings_internal@absl@@AAEXHPBIHH@Z
    ?NominalCPUFrequency@base_internal@absl@@YANXZ
    ?Now@CycleClock@base_internal@absl@@SA_JXZ
    ?Now@UnscaledCycleClock@base_internal@absl@@CA_JXZ
    ?NumCPUs@base_internal@absl@@YAHXZ
    ?RawLog@raw_logging_internal@absl@@YAXW4LogSeverity@2@PBDH1ZZ
    ?RawLoggingFullySupported@raw_logging_internal@absl@@YA_NXZ
    ?ReadDigits@?$BigUnsigned@$03@strings_internal@absl@@AAEHPBD0H@Z
    ?ReadDigits@?$BigUnsigned@$0FE@@strings_internal@absl@@AAEHPBD0H@Z
    ?ReadFloatMantissa@?$BigUnsigned@$03@strings_internal@absl@@QAEHABUParsedFloat@23@H@Z
    ?ReadFloatMantissa@?$BigUnsigned@$0FE@@strings_internal@absl@@QAEHABUParsedFloat@23@H@Z
    ?Register@CycleClockSource@base_internal@absl@@CAXP6A_JXZ@Z
    ?RegisterInternalLogFunction@raw_logging_internal@absl@@YAXP6AXW4LogSeverity@2@PBDHABV?$basic_string@DU?$char_traits@D@__1@std@@V?$allocator@D@23@@__1@std@@@Z@Z
    ?RegisterSpinLockProfiler@base_internal@absl@@YAXP6AXPBX_J@Z@Z
    ?RemoveExtraAsciiWhitespace@absl@@YAXPAV?$basic_string@DU?$char_traits@D@__1@std@@V?$allocator@D@23@@__1@std@@@Z
    ?Rethrow@variant_internal@absl@@YAXXZ
    ?SafeWriteToStderr@raw_logging_internal@absl@@YAXPBDI@Z
    ?SetCurrentThreadIdentity@base_internal@absl@@YAXPAUThreadIdentity@12@P6AXPAX@Z@Z
    ?SetToZero@?$BigUnsigned@$03@strings_internal@absl@@QAEXXZ
    ?SetToZero@?$BigUnsigned@$0FE@@strings_internal@absl@@QAEXXZ
    ?ShiftLeft@?$BigUnsigned@$03@strings_internal@absl@@QAEXH@Z
    ?ShiftLeft@?$BigUnsigned@$0FE@@strings_internal@absl@@QAEXH@Z
    ?SimpleAtob@absl@@YA_NVstring_view@1@PA_N@Z
    ?SimpleAtod@absl@@YA_NVstring_view@1@PAN@Z
    ?SimpleAtof@absl@@YA_NVstring_view@1@PAM@Z
    ?SixDigitsToBuffer@numbers_internal@absl@@YAINPAD@Z
    ?SlowLock@SpinLock@base_internal@absl@@AAEXXZ
    ?SlowUnlock@SpinLock@base_internal@absl@@AAEXI@Z
    ?SpinLockSuggestedDelayNS@base_internal@absl@@YAHH@Z
    ?SpinLockWait@base_internal@absl@@YAIPAU?$atomic@I@__1@std@@HQBUSpinLockWaitTransition@12@W4SchedulingMode@12@@Z
    ?SpinLoop@SpinLock@base_internal@absl@@AAEIXZ
    ?StartsWithIgnoreCase@absl@@YA_NVstring_view@1@0@Z
    ?StrAppend@absl@@YAXPAV?$basic_string@DU?$char_traits@D@__1@std@@V?$allocator@D@23@@__1@std@@ABVAlphaNum@1@111@Z
    ?StrAppend@absl@@YAXPAV?$basic_string@DU?$char_traits@D@__1@std@@V?$allocator@D@23@@__1@std@@ABVAlphaNum@1@11@Z
    ?StrAppend@absl@@YAXPAV?$basic_string@DU?$char_traits@D@__1@std@@V?$allocator@D@23@@__1@std@@ABVAlphaNum@1@1@Z
    ?StrAppend@absl@@YAXPAV?$basic_string@DU?$char_traits@D@__1@std@@V?$allocator@D@23@@__1@std@@ABVAlphaNum@1@@Z
    ?StrCat@absl@@YA?AV?$basic_string@DU?$char_traits@D@__1@std@@V?$allocator@D@23@@__1@std@@ABVAlphaNum@1@000@Z
    ?StrCat@absl@@YA?AV?$basic_string@DU?$char_traits@D@__1@std@@V?$allocator@D@23@@__1@std@@ABVAlphaNum@1@00@Z
    ?StrCat@absl@@YA?AV?$basic_string@DU?$char_traits@D@__1@std@@V?$allocator@D@23@@__1@std@@ABVAlphaNum@1@0@Z
    ?StrReplaceAll@absl@@YA?AV?$basic_string@DU?$char_traits@D@__1@std@@V?$allocator@D@23@@__1@std@@Vstring_view@1@V?$initializer_list@U?$pair@Vstring_view@absl@@V12@@__1@std@@@4@@Z
    ?StrReplaceAll@absl@@YAHV?$initializer_list@U?$pair@Vstring_view@absl@@V12@@__1@std@@@std@@PAV?$basic_string@DU?$char_traits@D@__1@std@@V?$allocator@D@23@@__1@3@@Z
    ?SubstituteAndAppendArray@substitute_internal@absl@@YAXPAV?$basic_string@DU?$char_traits@D@__1@std@@V?$allocator@D@23@@__1@std@@Vstring_view@2@PBV62@I@Z
    ?ThrowBadVariantAccess@variant_internal@absl@@YAXXZ
    ?ThrowStdBadAlloc@base_internal@absl@@YAXXZ
    ?ThrowStdBadFunctionCall@base_internal@absl@@YAXXZ
    ?ThrowStdDomainError@base_internal@absl@@YAXABV?$basic_string@DU?$char_traits@D@__1@std@@V?$allocator@D@23@@__1@std@@@Z
    ?ThrowStdDomainError@base_internal@absl@@YAXPBD@Z
    ?ThrowStdInvalidArgument@base_internal@absl@@YAXABV?$basic_string@DU?$char_traits@D@__1@std@@V?$allocator@D@23@@__1@std@@@Z
    ?ThrowStdInvalidArgument@base_internal@absl@@YAXPBD@Z
    ?ThrowStdLengthError@base_internal@absl@@YAXABV?$basic_string@DU?$char_traits@D@__1@std@@V?$allocator@D@23@@__1@std@@@Z
    ?ThrowStdLengthError@base_internal@absl@@YAXPBD@Z
    ?ThrowStdLogicError@base_internal@absl@@YAXABV?$basic_string@DU?$char_traits@D@__1@std@@V?$allocator@D@23@@__1@std@@@Z
    ?ThrowStdLogicError@base_internal@absl@@YAXPBD@Z
    ?ThrowStdOutOfRange@base_internal@absl@@YAXABV?$basic_string@DU?$char_traits@D@__1@std@@V?$allocator@D@23@@__1@std@@@Z
    ?ThrowStdOutOfRange@base_internal@absl@@YAXPBD@Z
    ?ThrowStdOverflowError@base_internal@absl@@YAXABV?$basic_string@DU?$char_traits@D@__1@std@@V?$allocator@D@23@@__1@std@@@Z
    ?ThrowStdOverflowError@base_internal@absl@@YAXPBD@Z
    ?ThrowStdRangeError@base_internal@absl@@YAXABV?$basic_string@DU?$char_traits@D@__1@std@@V?$allocator@D@23@@__1@std@@@Z
    ?ThrowStdRangeError@base_internal@absl@@YAXPBD@Z
    ?ThrowStdRuntimeError@base_internal@absl@@YAXABV?$basic_string@DU?$char_traits@D@__1@std@@V?$allocator@D@23@@__1@std@@@Z
    ?ThrowStdRuntimeError@base_internal@absl@@YAXPBD@Z
    ?ThrowStdUnderflowError@base_internal@absl@@YAXABV?$basic_string@DU?$char_traits@D@__1@std@@V?$allocator@D@23@@__1@std@@@Z
    ?ThrowStdUnderflowError@base_internal@absl@@YAXPBD@Z
    ?ToString@?$BigUnsigned@$03@strings_internal@absl@@QBE?AV?$basic_string@DU?$char_traits@D@__1@std@@V?$allocator@D@23@@__1@std@@XZ
    ?ToString@?$BigUnsigned@$0FE@@strings_internal@absl@@QBE?AV?$basic_string@DU?$char_traits@D@__1@std@@V?$allocator@D@23@@__1@std@@XZ
    ?Utf8SafeCEscape@absl@@YA?AV?$basic_string@DU?$char_traits@D@__1@std@@V?$allocator@D@23@@__1@std@@Vstring_view@1@@Z
    ?Utf8SafeCHexEscape@absl@@YA?AV?$basic_string@DU?$char_traits@D@__1@std@@V?$allocator@D@23@@__1@std@@Vstring_view@1@@Z
    ?WebSafeBase64Escape@absl@@YA?AV?$basic_string@DU?$char_traits@D@__1@std@@V?$allocator@D@23@@__1@std@@Vstring_view@1@@Z
    ?WebSafeBase64Escape@absl@@YAXVstring_view@1@PAV?$basic_string@DU?$char_traits@D@__1@std@@V?$allocator@D@23@@__1@std@@@Z
    ?WebSafeBase64Unescape@absl@@YA_NVstring_view@1@PAV?$basic_string@DU?$char_traits@D@__1@std@@V?$allocator@D@23@@__1@std@@@Z
    ?find@string_view@absl@@QBEIDI@Z
    ?find@string_view@absl@@QBEIV12@I@Z
    ?find_first_not_of@string_view@absl@@QBEIDI@Z
    ?find_first_not_of@string_view@absl@@QBEIV12@I@Z
    ?find_first_of@string_view@absl@@QBEIV12@I@Z
    ?find_last_not_of@string_view@absl@@QBEIDI@Z
    ?find_last_not_of@string_view@absl@@QBEIV12@I@Z
    ?find_last_of@string_view@absl@@QBEIV12@I@Z
    ?from_chars@absl@@YA?AUfrom_chars_result@1@PBD0AAMW4chars_format@1@@Z
    ?from_chars@absl@@YA?AUfrom_chars_result@1@PBD0AANW4chars_format@1@@Z
    ?memcasecmp@strings_internal@absl@@YAHPBD0I@Z
    ?memcspn@strings_internal@absl@@YAIPBDI0@Z
    ?memdup@strings_internal@absl@@YAPADPBDI@Z
    ?memmatch@strings_internal@absl@@YAPBDPBDI0I@Z
    ?mempbrk@strings_internal@absl@@YAPADPBDI0@Z
    ?memrchr@strings_internal@absl@@YAPADPBDHI@Z
    ?memspn@strings_internal@absl@@YAIPBDI0@Z
    ?overflow@OStringStream@strings_internal@absl@@EAEHH@Z
    ?reserve@?$vector@UViableSubstitution@strings_internal@absl@@V?$allocator@UViableSubstitution@strings_internal@absl@@@__1@std@@@__1@std@@QAEXI@Z
    ?rfind@string_view@absl@@QBEIDI@Z
    ?rfind@string_view@absl@@QBEIV12@I@Z
    ?safe_strto32_base@numbers_internal@absl@@YA_NVstring_view@2@PAHH@Z
    ?safe_strto64_base@numbers_internal@absl@@YA_NVstring_view@2@PA_JH@Z
    ?safe_strtou128_base@numbers_internal@absl@@YA_NVstring_view@2@PAVuint128@2@H@Z
    ?safe_strtou32_base@numbers_internal@absl@@YA_NVstring_view@2@PAIH@Z
    ?safe_strtou64_base@numbers_internal@absl@@YA_NVstring_view@2@PA_KH@Z
    ?size@?$BigUnsigned@$03@strings_internal@absl@@QBEHXZ
    ?size@?$BigUnsigned@$0FE@@strings_internal@absl@@QBEHXZ
    ?throw_bad_optional_access@optional_internal@absl@@YAXXZ
    ?what@bad_optional_access@absl@@UBEPBDXZ
    ?what@bad_variant_access@absl@@UBEPBDXZ
    ?words@?$BigUnsigned@$03@strings_internal@absl@@QBEPBIXZ
    ?words@?$BigUnsigned@$0FE@@strings_internal@absl@@QBEPBIXZ
    ?xsputn@OStringStream@strings_internal@absl@@EAEHPBDH@Z
