EXPORTS
    ?AddWithCarry@?$BigUnsigned@$03@strings_internal@absl@@AAEXHI@Z
    ?AddWithCarry@?$BigUnsigned@$03@strings_internal@absl@@AAEXH_K@Z
    ?AddWithCarry@?$BigUnsigned@$0FE@@strings_internal@absl@@AAEXHI@Z
    ?AddWithCarry@?$BigUnsigned@$0FE@@strings_internal@absl@@AAEXH_K@Z
    ?AppendPieces@strings_internal@absl@@YAXPAV?$basic_string@DU?$char_traits@D@__1@std@@V?$allocator@D@23@@__1@std@@V?$initializer_list@Vstring_view@absl@@@5@@Z
    ?ApplySubstitutions@strings_internal@absl@@YAHVstring_view@2@PAV?$vector@UViableSubstitution@strings_internal@absl@@V?$allocator@UViableSubstitution@strings_internal@absl@@@__1@std@@@__1@std@@PAV?$basic_string@DU?$char_traits@D@__1@std@@V?$allocator@D@23@@56@@Z
    ?AsciiStrToLower@absl@@YAXPAV?$basic_string@DU?$char_traits@D@__1@std@@V?$allocator@D@23@@__1@std@@@Z
    ?AsciiStrToUpper@absl@@YAXPAV?$basic_string@DU?$char_traits@D@__1@std@@V?$allocator@D@23@@__1@std@@@Z
    ?Base64Escape@absl@@YA?AV?$basic_string@DU?$char_traits@D@__1@std@@V?$allocator@D@23@@__1@std@@Vstring_view@1@@Z
    ?Base64Escape@absl@@YAXVstring_view@1@PAV?$basic_string@DU?$char_traits@D@__1@std@@V?$allocator@D@23@@__1@std@@@Z
    ?Base64EscapeInternal@strings_internal@absl@@YAIPBEIPADIPBD_N@Z
    ?Base64Unescape@absl@@YA_NVstring_view@1@PAV?$basic_string@DU?$char_traits@D@__1@std@@V?$allocator@D@23@@__1@std@@@Z
    ?BitCastToSigned@int128_internal@absl@@YA_J_K@Z
    ?BytesToHexString@absl@@YA?AV?$basic_string@DU?$char_traits@D@__1@std@@V?$allocator@D@23@@__1@std@@Vstring_view@1@@Z
    ?CEscape@absl@@YA?AV?$basic_string@DU?$char_traits@D@__1@std@@V?$allocator@D@23@@__1@std@@Vstring_view@1@@Z
    ?CHexEscape@absl@@YA?AV?$basic_string@DU?$char_traits@D@__1@std@@V?$allocator@D@23@@__1@std@@Vstring_view@1@@Z
    ?CUnescape@absl@@YA_NVstring_view@1@PAV?$basic_string@DU?$char_traits@D@__1@std@@V?$allocator@D@23@@__1@std@@1@Z
    ?CalculateBase64EscapedLenInternal@strings_internal@absl@@YAII_N@Z
    ?CatPieces@strings_internal@absl@@YA?AV?$basic_string@DU?$char_traits@D@__1@std@@V?$allocator@D@23@@__1@std@@V?$initializer_list@Vstring_view@absl@@@5@@Z
    ?CheckLengthInternal@string_view@absl@@CAII@Z
    ?CityHash32@hash_internal@absl@@YAIPBDI@Z
    ?CityHash64@hash_internal@absl@@YA_KPBDI@Z
    ?CityHash64WithSeed@hash_internal@absl@@YA_KPBDI_K@Z
    ?CityHash64WithSeeds@hash_internal@absl@@YA_KPBDI_K1@Z
    ?ClearCurrentThreadIdentity@base_internal@absl@@YAXXZ
    ?CombineContiguousImpl@CityHashState@hash_internal@absl@@CA_K_KPBEIU?$integral_constant@H$03@__1@std@@@Z
    ?CombineContiguousImpl@CityHashState@hash_internal@absl@@CA_K_KPBEIU?$integral_constant@H$07@__1@std@@@Z
    ?CombineLargeContiguousImpl32@CityHashState@hash_internal@absl@@CA_K_KPBEI@Z
    ?CombineLargeContiguousImpl64@CityHashState@hash_internal@absl@@CA_K_KPBEI@Z
    ?ControlWord@base_internal@absl@@YAPAU?$atomic@I@__1@std@@PAVonce_flag@2@@Z
    ?CurrentThreadIdentityIfPresent@base_internal@absl@@YAPAUThreadIdentity@12@XZ
    ?DecodeWaitCycles@SpinLock@base_internal@absl@@KA_KI@Z
    ?Digits10@?$BigUnsigned@$03@strings_internal@absl@@SAHXZ
    ?Digits10@?$BigUnsigned@$0FE@@strings_internal@absl@@SAHXZ
    ?DisableRescheduling@SchedulingGuard@base_internal@absl@@CA_NXZ
    ?DoLoad@?$AtomicHook@P6AXPBDH000@Z@base_internal@absl@@ABEP6AXPBDH000@ZXZ
    ?DoLoad@?$AtomicHook@P6AXPBX_J@Z@base_internal@absl@@ABEP6AXPBX_J@ZXZ
    ?DoLoad@?$AtomicHook@P6A_NW4LogSeverity@absl@@PBDHPAPADPAH@Z@base_internal@absl@@ABEP6A_NW4LogSeverity@3@PBDHPAPADPAH@ZXZ
    ?DoStore@?$AtomicHook@P6AXPBX_J@Z@base_internal@absl@@AAE_NP6AXPBX_J@Z@Z
    ?DoStore@?$AtomicHook@P6AXW4LogSeverity@absl@@PBDHABV?$basic_string@DU?$char_traits@D@__1@std@@V?$allocator@D@23@@__1@std@@@Z@base_internal@absl@@AAE_NP6AXW4LogSeverity@3@PBDHABV?$basic_string@DU?$char_traits@D@__1@std@@V?$allocator@D@23@@__1@std@@@Z@Z
    ?DummyFunction@?$AtomicHook@P6AXPBDH000@Z@base_internal@absl@@CAXPBDH000@Z
    ?DummyFunction@?$AtomicHook@P6AXPBX_J@Z@base_internal@absl@@CAXPBX_J@Z
    ?DummyFunction@?$AtomicHook@P6A_NW4LogSeverity@absl@@PBDHPAPADPAH@Z@base_internal@absl@@CA_NW4LogSeverity@3@PBDHPAPADPAH@Z
    ?EnableRescheduling@SchedulingGuard@base_internal@absl@@CAX_N@Z
    ?EncodeUTF8Char@strings_internal@absl@@YAIPAD_U@Z
    ?EncodeWaitCycles@SpinLock@base_internal@absl@@KAI_J0@Z
    ?EndsWithIgnoreCase@absl@@YA_NVstring_view@1@0@Z
    ?EqualsIgnoreCase@absl@@YA_NVstring_view@1@0@Z
    ?FastHexToBufferZeroPad16@numbers_internal@absl@@YAI_KPAD@Z
    ?FastIntToBuffer@numbers_internal@absl@@YAPADHPAD@Z
    ?FastIntToBuffer@numbers_internal@absl@@YAPADIPAD@Z
    ?FastIntToBuffer@numbers_internal@absl@@YAPAD_JPAD@Z
    ?FastIntToBuffer@numbers_internal@absl@@YAPAD_KPAD@Z
    ?Find@ByAnyChar@absl@@QBE?AVstring_view@2@V32@I@Z
    ?Find@ByChar@absl@@QBE?AVstring_view@2@V32@I@Z
    ?Find@ByLength@absl@@QBE?AVstring_view@2@V32@I@Z
    ?Find@ByString@absl@@QBE?AVstring_view@2@V32@I@Z
    ?FiveToTheNth@?$BigUnsigned@$03@strings_internal@absl@@SA?AV123@H@Z
    ?FiveToTheNth@?$BigUnsigned@$0FE@@strings_internal@absl@@SA?AV123@H@Z
    ?Frequency@CycleClock@base_internal@absl@@SANXZ
    ?Frequency@UnscaledCycleClock@base_internal@absl@@CANXZ
    ?GetTID@base_internal@absl@@YAIXZ
    ?GetWord@?$BigUnsigned@$03@strings_internal@absl@@QBEIH@Z
    ?GetWord@?$BigUnsigned@$0FE@@strings_internal@absl@@QBEIH@Z
    ?Hash128to64@hash_internal@absl@@YA_KABU?$pair@_K_K@__1@std@@@Z
    ?HexStringToBytes@absl@@YA?AV?$basic_string@DU?$char_traits@D@__1@std@@V?$allocator@D@23@@__1@std@@Vstring_view@1@@Z
    ?Int128High64@absl@@YA_JVint128@1@@Z
    ?Int128Low64@absl@@YA_KVint128@1@@Z
    ?Int128Min@absl@@YA?AVint128@1@XZ
    ?IsCooperative@SpinLock@base_internal@absl@@CA_NW4SchedulingMode@23@@Z
    ?Load16@big_endian@absl@@YAGPBX@Z
    ?Load32@big_endian@absl@@YAIPBX@Z
    ?Load32@little_endian@absl@@YAIPBX@Z
    ?Load64@little_endian@absl@@YA_KPBX@Z
    ?Load@?$AtomicHook@P6A_NW4LogSeverity@absl@@PBDHPAPADPAH@Z@base_internal@absl@@QBEP6A_NW4LogSeverity@3@PBDHPAPADPAH@ZXZ
    ?LogSeverityName@absl@@YAPBDW4LogSeverity@1@@Z
    ?MakeInt128@absl@@YA?AVint128@1@_J_K@Z
    ?MakeUint128@absl@@YA?AVuint128@1@_K0@Z
    ?Min@string_view@absl@@CAIII@Z
    ?MultiplyBy@?$BigUnsigned@$03@strings_internal@absl@@AAEXHPBI@Z
    ?MultiplyBy@?$BigUnsigned@$03@strings_internal@absl@@QAEXI@Z
    ?MultiplyBy@?$BigUnsigned@$03@strings_internal@absl@@QAEX_K@Z
    ?MultiplyBy@?$BigUnsigned@$0FE@@strings_internal@absl@@AAEXHPBI@Z
    ?MultiplyBy@?$BigUnsigned@$0FE@@strings_internal@absl@@QAEXI@Z
    ?MultiplyBy@?$BigUnsigned@$0FE@@strings_internal@absl@@QAEX_K@Z
    ?MultiplyByFiveToTheNth@?$BigUnsigned@$03@strings_internal@absl@@QAEXH@Z
    ?MultiplyByFiveToTheNth@?$BigUnsigned@$0FE@@strings_internal@absl@@QAEXH@Z
    ?MultiplyByTenToTheNth@?$BigUnsigned@$03@strings_internal@absl@@QAEXH@Z
    ?MultiplyByTenToTheNth@?$BigUnsigned@$0FE@@strings_internal@absl@@QAEXH@Z
    ?MultiplyStep@?$BigUnsigned@$03@strings_internal@absl@@AAEXHPBIHH@Z
    ?MultiplyStep@?$BigUnsigned@$0FE@@strings_internal@absl@@AAEXHPBIHH@Z
    ?NominalCPUFrequency@base_internal@absl@@YANXZ
    ?NormalizeLogSeverity@absl@@YA?AW4LogSeverity@1@W421@@Z
    ?Now@CycleClock@base_internal@absl@@SA_JXZ
    ?Now@UnscaledCycleClock@base_internal@absl@@CA_JXZ
    ?NumCPUs@base_internal@absl@@YAHXZ
    ?OccursBefore@ViableSubstitution@strings_internal@absl@@QBE_NABU123@@Z
    ?PiecewiseChunkSize@hash_internal@absl@@YAIXZ
    ?PutTwoDigits@numbers_internal@absl@@YAXIPAD@Z
    ?RawLog@raw_logging_internal@absl@@YAXW4LogSeverity@2@PBDH1ZZ
    ?RawLoggingFullySupported@raw_logging_internal@absl@@YA_NXZ
    ?Read1To3@CityHashState@hash_internal@absl@@CAIPBEI@Z
    ?Read4To8@CityHashState@hash_internal@absl@@CA_KPBEI@Z
    ?Read9To16@CityHashState@hash_internal@absl@@CA?AU?$pair@_K_K@__1@std@@PBEI@Z
    ?ReadDigits@?$BigUnsigned@$03@strings_internal@absl@@AAEHPBD0H@Z
    ?ReadDigits@?$BigUnsigned@$0FE@@strings_internal@absl@@AAEHPBD0H@Z
    ?ReadFloatMantissa@?$BigUnsigned@$03@strings_internal@absl@@QAEHABUParsedFloat@23@H@Z
    ?ReadFloatMantissa@?$BigUnsigned@$0FE@@strings_internal@absl@@QAEHABUParsedFloat@23@H@Z
    ?Register@CycleClockSource@base_internal@absl@@CAXP6A_JXZ@Z
    ?RegisterInternalLogFunction@raw_logging_internal@absl@@YAXP6AXW4LogSeverity@2@PBDHABV?$basic_string@DU?$char_traits@D@__1@std@@V?$allocator@D@23@@__1@std@@@Z@Z
    ?RegisterSpinLockProfiler@base_internal@absl@@YAXP6AXPBX_J@Z@Z
    ?RemoveExtraAsciiWhitespace@absl@@YAXPAV?$basic_string@DU?$char_traits@D@__1@std@@V?$allocator@D@23@@__1@std@@@Z
    ?Resize@?$ResizeUninitializedTraits@V?$basic_string@DU?$char_traits@D@__1@std@@V?$allocator@D@23@@__1@std@@X@strings_internal@absl@@SAXPAV?$basic_string@DU?$char_traits@D@__1@std@@V?$allocator@D@23@@__1@std@@I@Z
    ?Rethrow@variant_internal@absl@@YAXXZ
    ?SafeWriteToStderr@raw_logging_internal@absl@@YAXPBDI@Z
    ?SetCurrentThreadIdentity@base_internal@absl@@YAXPAUThreadIdentity@12@P6AXPAX@Z@Z
    ?SetToZero@?$BigUnsigned@$03@strings_internal@absl@@QAEXXZ
    ?SetToZero@?$BigUnsigned@$0FE@@strings_internal@absl@@QAEXXZ
    ?ShiftLeft@?$BigUnsigned@$03@strings_internal@absl@@QAEXH@Z
    ?ShiftLeft@?$BigUnsigned@$0FE@@strings_internal@absl@@QAEXH@Z
    ?SimpleAtob@absl@@YA_NVstring_view@1@PA_N@Z
    ?SimpleAtod@absl@@YA_NVstring_view@1@PAN@Z
    ?SimpleAtof@absl@@YA_NVstring_view@1@PAM@Z
    ?SixDigitsToBuffer@numbers_internal@absl@@YAINPAD@Z
    ?SlowLock@SpinLock@base_internal@absl@@AAEXXZ
    ?SlowUnlock@SpinLock@base_internal@absl@@AAEXI@Z
    ?SpinLockDelay@base_internal@absl@@YAXPAU?$atomic@I@__1@std@@IHW4SchedulingMode@12@@Z
    ?SpinLockSuggestedDelayNS@base_internal@absl@@YAHH@Z
    ?SpinLockWait@base_internal@absl@@YAIPAU?$atomic@I@__1@std@@HQBUSpinLockWaitTransition@12@W4SchedulingMode@12@@Z
    ?SpinLockWake@base_internal@absl@@YAXPAU?$atomic@I@__1@std@@_N@Z
    ?SpinLoop@SpinLock@base_internal@absl@@AAEIXZ
    ?StartsWithIgnoreCase@absl@@YA_NVstring_view@1@0@Z
    ?Store@?$AtomicHook@P6AXPBX_J@Z@base_internal@absl@@QAEXP6AXPBX_J@Z@Z
    ?Store@?$AtomicHook@P6AXW4LogSeverity@absl@@PBDHABV?$basic_string@DU?$char_traits@D@__1@std@@V?$allocator@D@23@@__1@std@@@Z@base_internal@absl@@QAEXP6AXW4LogSeverity@3@PBDHABV?$basic_string@DU?$char_traits@D@__1@std@@V?$allocator@D@23@@__1@std@@@Z@Z
    ?StrAppend@absl@@YAXPAV?$basic_string@DU?$char_traits@D@__1@std@@V?$allocator@D@23@@__1@std@@ABVAlphaNum@1@111@Z
    ?StrAppend@absl@@YAXPAV?$basic_string@DU?$char_traits@D@__1@std@@V?$allocator@D@23@@__1@std@@ABVAlphaNum@1@11@Z
    ?StrAppend@absl@@YAXPAV?$basic_string@DU?$char_traits@D@__1@std@@V?$allocator@D@23@@__1@std@@ABVAlphaNum@1@1@Z
    ?StrAppend@absl@@YAXPAV?$basic_string@DU?$char_traits@D@__1@std@@V?$allocator@D@23@@__1@std@@ABVAlphaNum@1@@Z
    ?StrCat@absl@@YA?AV?$basic_string@DU?$char_traits@D@__1@std@@V?$allocator@D@23@@__1@std@@ABVAlphaNum@1@000@Z
    ?StrCat@absl@@YA?AV?$basic_string@DU?$char_traits@D@__1@std@@V?$allocator@D@23@@__1@std@@ABVAlphaNum@1@00@Z
    ?StrCat@absl@@YA?AV?$basic_string@DU?$char_traits@D@__1@std@@V?$allocator@D@23@@__1@std@@ABVAlphaNum@1@0@Z
    ?StrReplaceAll@absl@@YA?AV?$basic_string@DU?$char_traits@D@__1@std@@V?$allocator@D@23@@__1@std@@Vstring_view@1@V?$initializer_list@U?$pair@Vstring_view@absl@@V12@@__1@std@@@4@@Z
    ?StrReplaceAll@absl@@YAHV?$initializer_list@U?$pair@Vstring_view@absl@@V12@@__1@std@@@std@@PAV?$basic_string@DU?$char_traits@D@__1@std@@V?$allocator@D@23@@__1@3@@Z
    ?StripAsciiWhitespace@absl@@YA?AVstring_view@1@V21@@Z
    ?StripLeadingAsciiWhitespace@absl@@YA?AVstring_view@1@V21@@Z
    ?StripTrailingAsciiWhitespace@absl@@YA?AVstring_view@1@V21@@Z
    ?StrlenInternal@string_view@absl@@CAIPBD@Z
    ?SubstituteAndAppendArray@substitute_internal@absl@@YAXPAV?$basic_string@DU?$char_traits@D@__1@std@@V?$allocator@D@23@@__1@std@@Vstring_view@2@PBV62@I@Z
    ?ThrowBadVariantAccess@variant_internal@absl@@YAXXZ
    ?ThrowStdBadAlloc@base_internal@absl@@YAXXZ
    ?ThrowStdBadFunctionCall@base_internal@absl@@YAXXZ
    ?ThrowStdDomainError@base_internal@absl@@YAXABV?$basic_string@DU?$char_traits@D@__1@std@@V?$allocator@D@23@@__1@std@@@Z
    ?ThrowStdDomainError@base_internal@absl@@YAXPBD@Z
    ?ThrowStdInvalidArgument@base_internal@absl@@YAXABV?$basic_string@DU?$char_traits@D@__1@std@@V?$allocator@D@23@@__1@std@@@Z
    ?ThrowStdInvalidArgument@base_internal@absl@@YAXPBD@Z
    ?ThrowStdLengthError@base_internal@absl@@YAXABV?$basic_string@DU?$char_traits@D@__1@std@@V?$allocator@D@23@@__1@std@@@Z
    ?ThrowStdLengthError@base_internal@absl@@YAXPBD@Z
    ?ThrowStdLogicError@base_internal@absl@@YAXABV?$basic_string@DU?$char_traits@D@__1@std@@V?$allocator@D@23@@__1@std@@@Z
    ?ThrowStdLogicError@base_internal@absl@@YAXPBD@Z
    ?ThrowStdOutOfRange@base_internal@absl@@YAXABV?$basic_string@DU?$char_traits@D@__1@std@@V?$allocator@D@23@@__1@std@@@Z
    ?ThrowStdOutOfRange@base_internal@absl@@YAXPBD@Z
    ?ThrowStdOverflowError@base_internal@absl@@YAXABV?$basic_string@DU?$char_traits@D@__1@std@@V?$allocator@D@23@@__1@std@@@Z
    ?ThrowStdOverflowError@base_internal@absl@@YAXPBD@Z
    ?ThrowStdRangeError@base_internal@absl@@YAXABV?$basic_string@DU?$char_traits@D@__1@std@@V?$allocator@D@23@@__1@std@@@Z
    ?ThrowStdRangeError@base_internal@absl@@YAXPBD@Z
    ?ThrowStdRuntimeError@base_internal@absl@@YAXABV?$basic_string@DU?$char_traits@D@__1@std@@V?$allocator@D@23@@__1@std@@@Z
    ?ThrowStdRuntimeError@base_internal@absl@@YAXPBD@Z
    ?ThrowStdUnderflowError@base_internal@absl@@YAXABV?$basic_string@DU?$char_traits@D@__1@std@@V?$allocator@D@23@@__1@std@@@Z
    ?ThrowStdUnderflowError@base_internal@absl@@YAXPBD@Z
    ?ToHost16@big_endian@absl@@YAGG@Z
    ?ToHost32@big_endian@absl@@YAII@Z
    ?ToHost32@little_endian@absl@@YAII@Z
    ?ToHost64@little_endian@absl@@YA_K_K@Z
    ?ToString@?$BigUnsigned@$03@strings_internal@absl@@QBE?AV?$basic_string@DU?$char_traits@D@__1@std@@V?$allocator@D@23@@__1@std@@XZ
    ?ToString@?$BigUnsigned@$0FE@@strings_internal@absl@@QBE?AV?$basic_string@DU?$char_traits@D@__1@std@@V?$allocator@D@23@@__1@std@@XZ
    ?TryLockInternal@SpinLock@base_internal@absl@@AAEIII@Z
    ?Uint128High64@absl@@YA_KVuint128@1@@Z
    ?Uint128High64@hash_internal@absl@@YA_KABU?$pair@_K_K@__1@std@@@Z
    ?Uint128Low64@absl@@YA_KVuint128@1@@Z
    ?Uint128Low64@hash_internal@absl@@YA_KABU?$pair@_K_K@__1@std@@@Z
    ?Uint128Max@absl@@YA?AVuint128@1@XZ
    ?UnalignedLoad16@base_internal@absl@@YAGPBX@Z
    ?UnalignedLoad32@base_internal@absl@@YAIPBX@Z
    ?UnalignedLoad64@base_internal@absl@@YA_KPBX@Z
    ?Utf8SafeCEscape@absl@@YA?AV?$basic_string@DU?$char_traits@D@__1@std@@V?$allocator@D@23@@__1@std@@Vstring_view@1@@Z
    ?Utf8SafeCHexEscape@absl@@YA?AV?$basic_string@DU?$char_traits@D@__1@std@@V?$allocator@D@23@@__1@std@@Vstring_view@1@@Z
    ?WebSafeBase64Escape@absl@@YA?AV?$basic_string@DU?$char_traits@D@__1@std@@V?$allocator@D@23@@__1@std@@Vstring_view@1@@Z
    ?WebSafeBase64Escape@absl@@YAXVstring_view@1@PAV?$basic_string@DU?$char_traits@D@__1@std@@V?$allocator@D@23@@__1@std@@@Z
    ?WebSafeBase64Unescape@absl@@YA_NVstring_view@1@PAV?$basic_string@DU?$char_traits@D@__1@std@@V?$allocator@D@23@@__1@std@@@Z
    ?__alloc@?$__split_buffer@UViableSubstitution@strings_internal@absl@@AAV?$allocator@UViableSubstitution@strings_internal@absl@@@__1@std@@@__1@std@@QAEAAV?$allocator@UViableSubstitution@strings_internal@absl@@@23@XZ
    ?__alloc@?$__vector_base@UViableSubstitution@strings_internal@absl@@V?$allocator@UViableSubstitution@strings_internal@absl@@@__1@std@@@__1@std@@IAEAAV?$allocator@UViableSubstitution@strings_internal@absl@@@23@XZ
    ?__alloc@?$__vector_base@UViableSubstitution@strings_internal@absl@@V?$allocator@UViableSubstitution@strings_internal@absl@@@__1@std@@@__1@std@@IBEABV?$allocator@UViableSubstitution@strings_internal@absl@@@23@XZ
    ?__annotate_contiguous_container@?$vector@UViableSubstitution@strings_internal@absl@@V?$allocator@UViableSubstitution@strings_internal@absl@@@__1@std@@@__1@std@@ABEXPBX000@Z
    ?__annotate_delete@?$vector@UViableSubstitution@strings_internal@absl@@V?$allocator@UViableSubstitution@strings_internal@absl@@@__1@std@@@__1@std@@ABEXXZ
    ?__annotate_new@?$vector@UViableSubstitution@strings_internal@absl@@V?$allocator@UViableSubstitution@strings_internal@absl@@@__1@std@@@__1@std@@ABEXI@Z
    ?__annotate_shrink@?$vector@UViableSubstitution@strings_internal@absl@@V?$allocator@UViableSubstitution@strings_internal@absl@@@__1@std@@@__1@std@@ABEXI@Z
    ?__destruct_at_end@?$__split_buffer@UViableSubstitution@strings_internal@absl@@AAV?$allocator@UViableSubstitution@strings_internal@absl@@@__1@std@@@__1@std@@QAEXPAUViableSubstitution@strings_internal@absl@@@Z
    ?__destruct_at_end@?$__split_buffer@UViableSubstitution@strings_internal@absl@@AAV?$allocator@UViableSubstitution@strings_internal@absl@@@__1@std@@@__1@std@@QAEXPAUViableSubstitution@strings_internal@absl@@U?$integral_constant@_N$0A@@23@@Z
    ?__destruct_at_end@?$__vector_base@UViableSubstitution@strings_internal@absl@@V?$allocator@UViableSubstitution@strings_internal@absl@@@__1@std@@@__1@std@@IAEXPAUViableSubstitution@strings_internal@absl@@@Z
    ?__destruct_at_end@?$vector@UViableSubstitution@strings_internal@absl@@V?$allocator@UViableSubstitution@strings_internal@absl@@@__1@std@@@__1@std@@AAEXPAUViableSubstitution@strings_internal@absl@@@Z
    ?__end_cap@?$__split_buffer@UViableSubstitution@strings_internal@absl@@AAV?$allocator@UViableSubstitution@strings_internal@absl@@@__1@std@@@__1@std@@QAEAAPAUViableSubstitution@strings_internal@absl@@XZ
    ?__end_cap@?$__split_buffer@UViableSubstitution@strings_internal@absl@@AAV?$allocator@UViableSubstitution@strings_internal@absl@@@__1@std@@@__1@std@@QBEABQAUViableSubstitution@strings_internal@absl@@XZ
    ?__end_cap@?$__vector_base@UViableSubstitution@strings_internal@absl@@V?$allocator@UViableSubstitution@strings_internal@absl@@@__1@std@@@__1@std@@IAEAAPAUViableSubstitution@strings_internal@absl@@XZ
    ?__end_cap@?$__vector_base@UViableSubstitution@strings_internal@absl@@V?$allocator@UViableSubstitution@strings_internal@absl@@@__1@std@@@__1@std@@IBEABQAUViableSubstitution@strings_internal@absl@@XZ
    ?__get@?$__compressed_pair_elem@AAV?$allocator@UViableSubstitution@strings_internal@absl@@@__1@std@@$00$0A@@__1@std@@QAEAAV?$allocator@UViableSubstitution@strings_internal@absl@@@23@XZ
    ?__get@?$__compressed_pair_elem@PAUThreadIdentity@base_internal@absl@@$0A@$0A@@__1@std@@QAEAAPAUThreadIdentity@base_internal@absl@@XZ
    ?__get@?$__compressed_pair_elem@PAUViableSubstitution@strings_internal@absl@@$0A@$0A@@__1@std@@QAEAAPAUViableSubstitution@strings_internal@absl@@XZ
    ?__get@?$__compressed_pair_elem@PAUViableSubstitution@strings_internal@absl@@$0A@$0A@@__1@std@@QBEABQAUViableSubstitution@strings_internal@absl@@XZ
    ?__get@?$__compressed_pair_elem@V?$allocator@UViableSubstitution@strings_internal@absl@@@__1@std@@$00$00@__1@std@@QAEAAV?$allocator@UViableSubstitution@strings_internal@absl@@@23@XZ
    ?__get@?$__compressed_pair_elem@V?$allocator@UViableSubstitution@strings_internal@absl@@@__1@std@@$00$00@__1@std@@QBEABV?$allocator@UViableSubstitution@strings_internal@absl@@@23@XZ
    ?__invalidate_all_iterators@?$vector@UViableSubstitution@strings_internal@absl@@V?$allocator@UViableSubstitution@strings_internal@absl@@@__1@std@@@__1@std@@AAEXXZ
    ?__invalidate_iterators_past@?$vector@UViableSubstitution@strings_internal@absl@@V?$allocator@UViableSubstitution@strings_internal@absl@@@__1@std@@@__1@std@@AAEXPAUViableSubstitution@strings_internal@absl@@@Z
    ?__max_size@?$allocator_traits@V?$allocator@UViableSubstitution@strings_internal@absl@@@__1@std@@@__1@std@@CAIU?$integral_constant@_N$00@23@ABV?$allocator@UViableSubstitution@strings_internal@absl@@@23@@Z
    ?__recommend@?$vector@UViableSubstitution@strings_internal@absl@@V?$allocator@UViableSubstitution@strings_internal@absl@@@__1@std@@@__1@std@@ABEII@Z
    ?__swap_out_circular_buffer@?$vector@UViableSubstitution@strings_internal@absl@@V?$allocator@UViableSubstitution@strings_internal@absl@@@__1@std@@@__1@std@@AAEXAAU?$__split_buffer@UViableSubstitution@strings_internal@absl@@AAV?$allocator@UViableSubstitution@strings_internal@absl@@@__1@std@@@23@@Z
    ?allocate@?$allocator@UViableSubstitution@strings_internal@absl@@@__1@std@@QAEPAUViableSubstitution@strings_internal@absl@@IPBX@Z
    ?allocate@?$allocator_traits@V?$allocator@UViableSubstitution@strings_internal@absl@@@__1@std@@@__1@std@@SAPAUViableSubstitution@strings_internal@absl@@AAV?$allocator@UViableSubstitution@strings_internal@absl@@@23@I@Z
    ?ascii_isdigit@absl@@YA_NE@Z
    ?ascii_isprint@absl@@YA_NE@Z
    ?ascii_isspace@absl@@YA_NE@Z
    ?ascii_isxdigit@absl@@YA_NE@Z
    ?ascii_tolower@absl@@YADE@Z
    ?ascii_toupper@absl@@YADE@Z
    ?back@?$vector@UViableSubstitution@strings_internal@absl@@V?$allocator@UViableSubstitution@strings_internal@absl@@@__1@std@@@__1@std@@QAEAAUViableSubstitution@strings_internal@absl@@XZ
    ?begin@?$initializer_list@U?$pair@Vstring_view@absl@@V12@@__1@std@@@std@@QBEPBU?$pair@Vstring_view@absl@@V12@@__1@2@XZ
    ?begin@?$initializer_list@Vstring_view@absl@@@std@@QBEPBVstring_view@absl@@XZ
    ?begin@string_view@absl@@QBEPBDXZ
    ?capacity@?$__split_buffer@UViableSubstitution@strings_internal@absl@@AAV?$allocator@UViableSubstitution@strings_internal@absl@@@__1@std@@@__1@std@@QBEIXZ
    ?capacity@?$__vector_base@UViableSubstitution@strings_internal@absl@@V?$allocator@UViableSubstitution@strings_internal@absl@@@__1@std@@@__1@std@@IBEIXZ
    ?capacity@?$vector@UViableSubstitution@strings_internal@absl@@V?$allocator@UViableSubstitution@strings_internal@absl@@@__1@std@@@__1@std@@QBEIXZ
    ?clear@?$__split_buffer@UViableSubstitution@strings_internal@absl@@AAV?$allocator@UViableSubstitution@strings_internal@absl@@@__1@std@@@__1@std@@QAEXXZ
    ?clear@?$__vector_base@UViableSubstitution@strings_internal@absl@@V?$allocator@UViableSubstitution@strings_internal@absl@@@__1@std@@@__1@std@@IAEXXZ
    ?data@?$vector@UViableSubstitution@strings_internal@absl@@V?$allocator@UViableSubstitution@strings_internal@absl@@@__1@std@@@__1@std@@QBEPBUViableSubstitution@strings_internal@absl@@XZ
    ?data@AlphaNum@absl@@QBEPBDXZ
    ?data@string_view@absl@@QBEPBDXZ
    ?deallocate@?$allocator@UViableSubstitution@strings_internal@absl@@@__1@std@@QAEXPAUViableSubstitution@strings_internal@absl@@I@Z
    ?deallocate@?$allocator_traits@V?$allocator@UViableSubstitution@strings_internal@absl@@@__1@std@@@__1@std@@SAXAAV?$allocator@UViableSubstitution@strings_internal@absl@@@23@PAUViableSubstitution@strings_internal@absl@@I@Z
    ?destroy@?$allocator@UViableSubstitution@strings_internal@absl@@@__1@std@@QAEXPAUViableSubstitution@strings_internal@absl@@@Z
    ?empty@?$vector@UViableSubstitution@strings_internal@absl@@V?$allocator@UViableSubstitution@strings_internal@absl@@@__1@std@@@__1@std@@QBE_NXZ
    ?empty@string_view@absl@@QBE_NXZ
    ?end@?$initializer_list@U?$pair@Vstring_view@absl@@V12@@__1@std@@@std@@QBEPBU?$pair@Vstring_view@absl@@V12@@__1@2@XZ
    ?end@?$initializer_list@Vstring_view@absl@@@std@@QBEPBVstring_view@absl@@XZ
    ?end@string_view@absl@@QBEPBDXZ
    ?find@string_view@absl@@QBEIDI@Z
    ?find@string_view@absl@@QBEIV12@I@Z
    ?find_first_not_of@string_view@absl@@QBEIDI@Z
    ?find_first_not_of@string_view@absl@@QBEIV12@I@Z
    ?find_first_of@string_view@absl@@QBEIDI@Z
    ?find_first_of@string_view@absl@@QBEIV12@I@Z
    ?find_last_not_of@string_view@absl@@QBEIDI@Z
    ?find_last_not_of@string_view@absl@@QBEIV12@I@Z
    ?find_last_of@string_view@absl@@QBEIDI@Z
    ?find_last_of@string_view@absl@@QBEIV12@I@Z
    ?first@?$__compressed_pair@PAUThreadIdentity@base_internal@absl@@P6AXPAX@Z@__1@std@@QAEAAPAUThreadIdentity@base_internal@absl@@XZ
    ?first@?$__compressed_pair@PAUViableSubstitution@strings_internal@absl@@AAV?$allocator@UViableSubstitution@strings_internal@absl@@@__1@std@@@__1@std@@QAEAAPAUViableSubstitution@strings_internal@absl@@XZ
    ?first@?$__compressed_pair@PAUViableSubstitution@strings_internal@absl@@AAV?$allocator@UViableSubstitution@strings_internal@absl@@@__1@std@@@__1@std@@QBEABQAUViableSubstitution@strings_internal@absl@@XZ
    ?first@?$__compressed_pair@PAUViableSubstitution@strings_internal@absl@@V?$allocator@UViableSubstitution@strings_internal@absl@@@__1@std@@@__1@std@@QAEAAPAUViableSubstitution@strings_internal@absl@@XZ
    ?first@?$__compressed_pair@PAUViableSubstitution@strings_internal@absl@@V?$allocator@UViableSubstitution@strings_internal@absl@@@__1@std@@@__1@std@@QBEABQAUViableSubstitution@strings_internal@absl@@XZ
    ?from_chars@absl@@YA?AUfrom_chars_result@1@PBD0AAMW4chars_format@1@@Z
    ?from_chars@absl@@YA?AUfrom_chars_result@1@PBD0AANW4chars_format@1@@Z
    ?gbswap_16@absl@@YAGG@Z
    ?gbswap_32@absl@@YAII@Z
    ?gbswap_64@absl@@YA_K_K@Z
    ?length@string_view@absl@@QBEIXZ
    ?max@?$numeric_limits@Vuint128@absl@@@__1@std@@SA?AVuint128@absl@@XZ
    ?max_size@?$allocator@UViableSubstitution@strings_internal@absl@@@__1@std@@QBEIXZ
    ?max_size@?$allocator_traits@V?$allocator@UViableSubstitution@strings_internal@absl@@@__1@std@@@__1@std@@SAIABV?$allocator@UViableSubstitution@strings_internal@absl@@@23@@Z
    ?max_size@?$vector@UViableSubstitution@strings_internal@absl@@V?$allocator@UViableSubstitution@strings_internal@absl@@@__1@std@@@__1@std@@QBEIXZ
    ?memcasecmp@strings_internal@absl@@YAHPBD0I@Z
    ?memcspn@strings_internal@absl@@YAIPBDI0@Z
    ?memdup@strings_internal@absl@@YAPADPBDI@Z
    ?memmatch@strings_internal@absl@@YAPBDPBDI0I@Z
    ?mempbrk@strings_internal@absl@@YAPADPBDI0@Z
    ?memrchr@strings_internal@absl@@YAPADPBDHI@Z
    ?memspn@strings_internal@absl@@YAIPBDI0@Z
    ?overflow@OStringStream@strings_internal@absl@@EAEHH@Z
    ?pop_back@?$vector@UViableSubstitution@strings_internal@absl@@V?$allocator@UViableSubstitution@strings_internal@absl@@@__1@std@@@__1@std@@QAEXXZ
    ?rbegin@string_view@absl@@QBE?AV?$reverse_iterator@PBD@__1@std@@XZ
    ?remove_prefix@string_view@absl@@QAEXI@Z
    ?rend@string_view@absl@@QBE?AV?$reverse_iterator@PBD@__1@std@@XZ
    ?reserve@?$vector@UViableSubstitution@strings_internal@absl@@V?$allocator@UViableSubstitution@strings_internal@absl@@@__1@std@@@__1@std@@QAEXI@Z
    ?reset@?$unique_ptr@UThreadIdentity@base_internal@absl@@P6AXPAX@Z@__1@std@@QAEXPAUThreadIdentity@base_internal@absl@@@Z
    ?rfind@string_view@absl@@QBEIDI@Z
    ?rfind@string_view@absl@@QBEIV12@I@Z
    ?safe_strto32_base@numbers_internal@absl@@YA_NVstring_view@2@PAHH@Z
    ?safe_strto64_base@numbers_internal@absl@@YA_NVstring_view@2@PA_JH@Z
    ?safe_strtou128_base@numbers_internal@absl@@YA_NVstring_view@2@PAVuint128@2@H@Z
    ?safe_strtou32_base@numbers_internal@absl@@YA_NVstring_view@2@PAIH@Z
    ?safe_strtou64_base@numbers_internal@absl@@YA_NVstring_view@2@PA_KH@Z
    ?second@?$__compressed_pair@PAUThreadIdentity@base_internal@absl@@P6AXPAX@Z@__1@std@@QAEAAP6AXPAX@ZXZ
    ?second@?$__compressed_pair@PAUViableSubstitution@strings_internal@absl@@AAV?$allocator@UViableSubstitution@strings_internal@absl@@@__1@std@@@__1@std@@QAEAAV?$allocator@UViableSubstitution@strings_internal@absl@@@23@XZ
    ?second@?$__compressed_pair@PAUViableSubstitution@strings_internal@absl@@V?$allocator@UViableSubstitution@strings_internal@absl@@@__1@std@@@__1@std@@QAEAAV?$allocator@UViableSubstitution@strings_internal@absl@@@23@XZ
    ?second@?$__compressed_pair@PAUViableSubstitution@strings_internal@absl@@V?$allocator@UViableSubstitution@strings_internal@absl@@@__1@std@@@__1@std@@QBEABV?$allocator@UViableSubstitution@strings_internal@absl@@@23@XZ
    ?size@?$BigUnsigned@$03@strings_internal@absl@@QBEHXZ
    ?size@?$BigUnsigned@$0FE@@strings_internal@absl@@QBEHXZ
    ?size@?$initializer_list@U?$pair@Vstring_view@absl@@V12@@__1@std@@@std@@QBEIXZ
    ?size@?$vector@UViableSubstitution@strings_internal@absl@@V?$allocator@UViableSubstitution@strings_internal@absl@@@__1@std@@@__1@std@@QBEIXZ
    ?size@AlphaNum@absl@@QBEIXZ
    ?size@string_view@absl@@QBEIXZ
    ?substr@string_view@absl@@QBE?AV12@II@Z
    ?throw_bad_optional_access@optional_internal@absl@@YAXXZ
    ?what@bad_optional_access@absl@@UBEPBDXZ
    ?what@bad_variant_access@absl@@UBEPBDXZ
    ?words@?$BigUnsigned@$03@strings_internal@absl@@QBEPBIXZ
    ?words@?$BigUnsigned@$0FE@@strings_internal@absl@@QBEPBIXZ
    ?xsputn@OStringStream@strings_internal@absl@@EAEHPBDH@Z
