EXPORTS
    ?AddWithCarry@?$BigUnsigned@$03@strings_internal@absl@@AEAAXHI@Z
    ?AddWithCarry@?$BigUnsigned@$03@strings_internal@absl@@AEAAXH_K@Z
    ?AddWithCarry@?$BigUnsigned@$0FE@@strings_internal@absl@@AEAAXHI@Z
    ?AddWithCarry@?$BigUnsigned@$0FE@@strings_internal@absl@@AEAAXH_K@Z
    ?AppendPieces@strings_internal@absl@@YAXPEAV?$basic_string@DU?$char_traits@D@__1@std@@V?$allocator@D@23@@__1@std@@V?$initializer_list@Vstring_view@absl@@@5@@Z
    ?ApplySubstitutions@strings_internal@absl@@YAHVstring_view@2@PEAV?$vector@UViableSubstitution@strings_internal@absl@@V?$allocator@UViableSubstitution@strings_internal@absl@@@__1@std@@@__1@std@@PEAV?$basic_string@DU?$char_traits@D@__1@std@@V?$allocator@D@23@@56@@Z
    ?AsciiStrToLower@absl@@YAXPEAV?$basic_string@DU?$char_traits@D@__1@std@@V?$allocator@D@23@@__1@std@@@Z
    ?AsciiStrToUpper@absl@@YAXPEAV?$basic_string@DU?$char_traits@D@__1@std@@V?$allocator@D@23@@__1@std@@@Z
    ?Base64Escape@absl@@YA?AV?$basic_string@DU?$char_traits@D@__1@std@@V?$allocator@D@23@@__1@std@@Vstring_view@1@@Z
    ?Base64Escape@absl@@YAXVstring_view@1@PEAV?$basic_string@DU?$char_traits@D@__1@std@@V?$allocator@D@23@@__1@std@@@Z
    ?Base64EscapeInternal@strings_internal@absl@@YA_KPEBE_KPEAD1PEBD_N@Z
    ?Base64Unescape@absl@@YA_NVstring_view@1@PEAV?$basic_string@DU?$char_traits@D@__1@std@@V?$allocator@D@23@@__1@std@@@Z
    ?BitCastToSigned@int128_internal@absl@@YA_J_K@Z
    ?BytesToHexString@absl@@YA?AV?$basic_string@DU?$char_traits@D@__1@std@@V?$allocator@D@23@@__1@std@@Vstring_view@1@@Z
    ?CEscape@absl@@YA?AV?$basic_string@DU?$char_traits@D@__1@std@@V?$allocator@D@23@@__1@std@@Vstring_view@1@@Z
    ?CHexEscape@absl@@YA?AV?$basic_string@DU?$char_traits@D@__1@std@@V?$allocator@D@23@@__1@std@@Vstring_view@1@@Z
    ?CUnescape@absl@@YA_NVstring_view@1@PEAV?$basic_string@DU?$char_traits@D@__1@std@@V?$allocator@D@23@@__1@std@@1@Z
    ?CalculateBase64EscapedLenInternal@strings_internal@absl@@YA_K_K_N@Z
    ?CatPieces@strings_internal@absl@@YA?AV?$basic_string@DU?$char_traits@D@__1@std@@V?$allocator@D@23@@__1@std@@V?$initializer_list@Vstring_view@absl@@@5@@Z
    ?CheckLengthInternal@string_view@absl@@CA_K_K@Z
    ?CityHash32@hash_internal@absl@@YAIPEBD_K@Z
    ?CityHash64@hash_internal@absl@@YA_KPEBD_K@Z
    ?CityHash64WithSeed@hash_internal@absl@@YA_KPEBD_K1@Z
    ?CityHash64WithSeeds@hash_internal@absl@@YA_KPEBD_K11@Z
    ?ClearCurrentThreadIdentity@base_internal@absl@@YAXXZ
    ?CombineContiguousImpl@CityHashState@hash_internal@absl@@CA_K_KPEBE0U?$integral_constant@H$03@__1@std@@@Z
    ?CombineContiguousImpl@CityHashState@hash_internal@absl@@CA_K_KPEBE0U?$integral_constant@H$07@__1@std@@@Z
    ?CombineLargeContiguousImpl32@CityHashState@hash_internal@absl@@CA_K_KPEBE0@Z
    ?CombineLargeContiguousImpl64@CityHashState@hash_internal@absl@@CA_K_KPEBE0@Z
    ?ControlWord@base_internal@absl@@YAPEAU?$atomic@I@__1@std@@PEAVonce_flag@2@@Z
    ?CurrentThreadIdentityIfPresent@base_internal@absl@@YAPEAUThreadIdentity@12@XZ
    ?DecodeWaitCycles@SpinLock@base_internal@absl@@KA_KI@Z
    ?Digits10@?$BigUnsigned@$03@strings_internal@absl@@SAHXZ
    ?Digits10@?$BigUnsigned@$0FE@@strings_internal@absl@@SAHXZ
    ?DisableRescheduling@SchedulingGuard@base_internal@absl@@CA_NXZ
    ?DoLoad@?$AtomicHook@P6AXPEBDH000@Z@base_internal@absl@@AEBAP6AXPEBDH000@ZXZ
    ?DoLoad@?$AtomicHook@P6AXPEBX_J@Z@base_internal@absl@@AEBAP6AXPEBX_J@ZXZ
    ?DoLoad@?$AtomicHook@P6A_NW4LogSeverity@absl@@PEBDHPEAPEADPEAH@Z@base_internal@absl@@AEBAP6A_NW4LogSeverity@3@PEBDHPEAPEADPEAH@ZXZ
    ?DoStore@?$AtomicHook@P6AXPEBX_J@Z@base_internal@absl@@AEAA_NP6AXPEBX_J@Z@Z
    ?DoStore@?$AtomicHook@P6AXW4LogSeverity@absl@@PEBDHAEBV?$basic_string@DU?$char_traits@D@__1@std@@V?$allocator@D@23@@__1@std@@@Z@base_internal@absl@@AEAA_NP6AXW4LogSeverity@3@PEBDHAEBV?$basic_string@DU?$char_traits@D@__1@std@@V?$allocator@D@23@@__1@std@@@Z@Z
    ?DummyFunction@?$AtomicHook@P6AXPEBDH000@Z@base_internal@absl@@CAXPEBDH000@Z
    ?DummyFunction@?$AtomicHook@P6AXPEBX_J@Z@base_internal@absl@@CAXPEBX_J@Z
    ?DummyFunction@?$AtomicHook@P6A_NW4LogSeverity@absl@@PEBDHPEAPEADPEAH@Z@base_internal@absl@@CA_NW4LogSeverity@3@PEBDHPEAPEADPEAH@Z
    ?EnableRescheduling@SchedulingGuard@base_internal@absl@@CAX_N@Z
    ?EncodeUTF8Char@strings_internal@absl@@YA_KPEAD_U@Z
    ?EncodeWaitCycles@SpinLock@base_internal@absl@@KAI_J0@Z
    ?EndsWithIgnoreCase@absl@@YA_NVstring_view@1@0@Z
    ?EqualsIgnoreCase@absl@@YA_NVstring_view@1@0@Z
    ?FastHexToBufferZeroPad16@numbers_internal@absl@@YA_K_KPEAD@Z
    ?FastIntToBuffer@numbers_internal@absl@@YAPEADHPEAD@Z
    ?FastIntToBuffer@numbers_internal@absl@@YAPEADIPEAD@Z
    ?FastIntToBuffer@numbers_internal@absl@@YAPEAD_JPEAD@Z
    ?FastIntToBuffer@numbers_internal@absl@@YAPEAD_KPEAD@Z
    ?Find@ByAnyChar@absl@@QEBA?AVstring_view@2@V32@_K@Z
    ?Find@ByChar@absl@@QEBA?AVstring_view@2@V32@_K@Z
    ?Find@ByLength@absl@@QEBA?AVstring_view@2@V32@_K@Z
    ?Find@ByString@absl@@QEBA?AVstring_view@2@V32@_K@Z
    ?FiveToTheNth@?$BigUnsigned@$03@strings_internal@absl@@SA?AV123@H@Z
    ?FiveToTheNth@?$BigUnsigned@$0FE@@strings_internal@absl@@SA?AV123@H@Z
    ?Frequency@CycleClock@base_internal@absl@@SANXZ
    ?Frequency@UnscaledCycleClock@base_internal@absl@@CANXZ
    ?GetTID@base_internal@absl@@YAIXZ
    ?GetWord@?$BigUnsigned@$03@strings_internal@absl@@QEBAIH@Z
    ?GetWord@?$BigUnsigned@$0FE@@strings_internal@absl@@QEBAIH@Z
    ?Hash128to64@hash_internal@absl@@YA_KAEBU?$pair@_K_K@__1@std@@@Z
    ?HexStringToBytes@absl@@YA?AV?$basic_string@DU?$char_traits@D@__1@std@@V?$allocator@D@23@@__1@std@@Vstring_view@1@@Z
    ?Int128High64@absl@@YA_JVint128@1@@Z
    ?Int128Low64@absl@@YA_KVint128@1@@Z
    ?Int128Min@absl@@YA?AVint128@1@XZ
    ?IsCooperative@SpinLock@base_internal@absl@@CA_NW4SchedulingMode@23@@Z
    ?Load16@big_endian@absl@@YAGPEBX@Z
    ?Load32@big_endian@absl@@YAIPEBX@Z
    ?Load32@little_endian@absl@@YAIPEBX@Z
    ?Load64@little_endian@absl@@YA_KPEBX@Z
    ?Load@?$AtomicHook@P6A_NW4LogSeverity@absl@@PEBDHPEAPEADPEAH@Z@base_internal@absl@@QEBAP6A_NW4LogSeverity@3@PEBDHPEAPEADPEAH@ZXZ
    ?LogSeverityName@absl@@YAPEBDW4LogSeverity@1@@Z
    ?MakeInt128@absl@@YA?AVint128@1@_J_K@Z
    ?MakeUint128@absl@@YA?AVuint128@1@_K0@Z
    ?Min@string_view@absl@@CA_K_K0@Z
    ?MultiplyBy@?$BigUnsigned@$03@strings_internal@absl@@AEAAXHPEBI@Z
    ?MultiplyBy@?$BigUnsigned@$03@strings_internal@absl@@QEAAXI@Z
    ?MultiplyBy@?$BigUnsigned@$03@strings_internal@absl@@QEAAX_K@Z
    ?MultiplyBy@?$BigUnsigned@$0FE@@strings_internal@absl@@AEAAXHPEBI@Z
    ?MultiplyBy@?$BigUnsigned@$0FE@@strings_internal@absl@@QEAAXI@Z
    ?MultiplyBy@?$BigUnsigned@$0FE@@strings_internal@absl@@QEAAX_K@Z
    ?MultiplyByFiveToTheNth@?$BigUnsigned@$03@strings_internal@absl@@QEAAXH@Z
    ?MultiplyByFiveToTheNth@?$BigUnsigned@$0FE@@strings_internal@absl@@QEAAXH@Z
    ?MultiplyByTenToTheNth@?$BigUnsigned@$03@strings_internal@absl@@QEAAXH@Z
    ?MultiplyByTenToTheNth@?$BigUnsigned@$0FE@@strings_internal@absl@@QEAAXH@Z
    ?MultiplyStep@?$BigUnsigned@$03@strings_internal@absl@@AEAAXHPEBIHH@Z
    ?MultiplyStep@?$BigUnsigned@$0FE@@strings_internal@absl@@AEAAXHPEBIHH@Z
    ?NominalCPUFrequency@base_internal@absl@@YANXZ
    ?NormalizeLogSeverity@absl@@YA?AW4LogSeverity@1@W421@@Z
    ?Now@CycleClock@base_internal@absl@@SA_JXZ
    ?Now@UnscaledCycleClock@base_internal@absl@@CA_JXZ
    ?NumCPUs@base_internal@absl@@YAHXZ
    ?OccursBefore@ViableSubstitution@strings_internal@absl@@QEBA_NAEBU123@@Z
    ?PiecewiseChunkSize@hash_internal@absl@@YA_KXZ
    ?PutTwoDigits@numbers_internal@absl@@YAX_KPEAD@Z
    ?RawLog@raw_logging_internal@absl@@YAXW4LogSeverity@2@PEBDH1ZZ
    ?RawLoggingFullySupported@raw_logging_internal@absl@@YA_NXZ
    ?Read1To3@CityHashState@hash_internal@absl@@CAIPEBE_K@Z
    ?Read4To8@CityHashState@hash_internal@absl@@CA_KPEBE_K@Z
    ?Read9To16@CityHashState@hash_internal@absl@@CA?AU?$pair@_K_K@__1@std@@PEBE_K@Z
    ?ReadDigits@?$BigUnsigned@$03@strings_internal@absl@@AEAAHPEBD0H@Z
    ?ReadDigits@?$BigUnsigned@$0FE@@strings_internal@absl@@AEAAHPEBD0H@Z
    ?ReadFloatMantissa@?$BigUnsigned@$03@strings_internal@absl@@QEAAHAEBUParsedFloat@23@H@Z
    ?ReadFloatMantissa@?$BigUnsigned@$0FE@@strings_internal@absl@@QEAAHAEBUParsedFloat@23@H@Z
    ?Register@CycleClockSource@base_internal@absl@@CAXP6A_JXZ@Z
    ?RegisterInternalLogFunction@raw_logging_internal@absl@@YAXP6AXW4LogSeverity@2@PEBDHAEBV?$basic_string@DU?$char_traits@D@__1@std@@V?$allocator@D@23@@__1@std@@@Z@Z
    ?RegisterSpinLockProfiler@base_internal@absl@@YAXP6AXPEBX_J@Z@Z
    ?RemoveExtraAsciiWhitespace@absl@@YAXPEAV?$basic_string@DU?$char_traits@D@__1@std@@V?$allocator@D@23@@__1@std@@@Z
    ?Resize@?$ResizeUninitializedTraits@V?$basic_string@DU?$char_traits@D@__1@std@@V?$allocator@D@23@@__1@std@@X@strings_internal@absl@@SAXPEAV?$basic_string@DU?$char_traits@D@__1@std@@V?$allocator@D@23@@__1@std@@_K@Z
    ?Rethrow@variant_internal@absl@@YAXXZ
    ?SafeWriteToStderr@raw_logging_internal@absl@@YAXPEBD_K@Z
    ?SetCurrentThreadIdentity@base_internal@absl@@YAXPEAUThreadIdentity@12@P6AXPEAX@Z@Z
    ?SetToZero@?$BigUnsigned@$03@strings_internal@absl@@QEAAXXZ
    ?SetToZero@?$BigUnsigned@$0FE@@strings_internal@absl@@QEAAXXZ
    ?ShiftLeft@?$BigUnsigned@$03@strings_internal@absl@@QEAAXH@Z
    ?ShiftLeft@?$BigUnsigned@$0FE@@strings_internal@absl@@QEAAXH@Z
    ?SimpleAtob@absl@@YA_NVstring_view@1@PEA_N@Z
    ?SimpleAtod@absl@@YA_NVstring_view@1@PEAN@Z
    ?SimpleAtof@absl@@YA_NVstring_view@1@PEAM@Z
    ?SixDigitsToBuffer@numbers_internal@absl@@YA_KNPEAD@Z
    ?SlowLock@SpinLock@base_internal@absl@@AEAAXXZ
    ?SlowUnlock@SpinLock@base_internal@absl@@AEAAXI@Z
    ?SpinLockDelay@base_internal@absl@@YAXPEAU?$atomic@I@__1@std@@IHW4SchedulingMode@12@@Z
    ?SpinLockSuggestedDelayNS@base_internal@absl@@YAHH@Z
    ?SpinLockWait@base_internal@absl@@YAIPEAU?$atomic@I@__1@std@@HQEBUSpinLockWaitTransition@12@W4SchedulingMode@12@@Z
    ?SpinLockWake@base_internal@absl@@YAXPEAU?$atomic@I@__1@std@@_N@Z
    ?SpinLoop@SpinLock@base_internal@absl@@AEAAIXZ
    ?StartsWithIgnoreCase@absl@@YA_NVstring_view@1@0@Z
    ?Store@?$AtomicHook@P6AXPEBX_J@Z@base_internal@absl@@QEAAXP6AXPEBX_J@Z@Z
    ?Store@?$AtomicHook@P6AXW4LogSeverity@absl@@PEBDHAEBV?$basic_string@DU?$char_traits@D@__1@std@@V?$allocator@D@23@@__1@std@@@Z@base_internal@absl@@QEAAXP6AXW4LogSeverity@3@PEBDHAEBV?$basic_string@DU?$char_traits@D@__1@std@@V?$allocator@D@23@@__1@std@@@Z@Z
    ?StrAppend@absl@@YAXPEAV?$basic_string@DU?$char_traits@D@__1@std@@V?$allocator@D@23@@__1@std@@AEBVAlphaNum@1@111@Z
    ?StrAppend@absl@@YAXPEAV?$basic_string@DU?$char_traits@D@__1@std@@V?$allocator@D@23@@__1@std@@AEBVAlphaNum@1@11@Z
    ?StrAppend@absl@@YAXPEAV?$basic_string@DU?$char_traits@D@__1@std@@V?$allocator@D@23@@__1@std@@AEBVAlphaNum@1@1@Z
    ?StrAppend@absl@@YAXPEAV?$basic_string@DU?$char_traits@D@__1@std@@V?$allocator@D@23@@__1@std@@AEBVAlphaNum@1@@Z
    ?StrCat@absl@@YA?AV?$basic_string@DU?$char_traits@D@__1@std@@V?$allocator@D@23@@__1@std@@AEBVAlphaNum@1@000@Z
    ?StrCat@absl@@YA?AV?$basic_string@DU?$char_traits@D@__1@std@@V?$allocator@D@23@@__1@std@@AEBVAlphaNum@1@00@Z
    ?StrCat@absl@@YA?AV?$basic_string@DU?$char_traits@D@__1@std@@V?$allocator@D@23@@__1@std@@AEBVAlphaNum@1@0@Z
    ?StrReplaceAll@absl@@YA?AV?$basic_string@DU?$char_traits@D@__1@std@@V?$allocator@D@23@@__1@std@@Vstring_view@1@V?$initializer_list@U?$pair@Vstring_view@absl@@V12@@__1@std@@@4@@Z
    ?StrReplaceAll@absl@@YAHV?$initializer_list@U?$pair@Vstring_view@absl@@V12@@__1@std@@@std@@PEAV?$basic_string@DU?$char_traits@D@__1@std@@V?$allocator@D@23@@__1@3@@Z
    ?StripAsciiWhitespace@absl@@YA?AVstring_view@1@V21@@Z
    ?StripLeadingAsciiWhitespace@absl@@YA?AVstring_view@1@V21@@Z
    ?StripTrailingAsciiWhitespace@absl@@YA?AVstring_view@1@V21@@Z
    ?StrlenInternal@string_view@absl@@CA_KPEBD@Z
    ?SubstituteAndAppendArray@substitute_internal@absl@@YAXPEAV?$basic_string@DU?$char_traits@D@__1@std@@V?$allocator@D@23@@__1@std@@Vstring_view@2@PEBV62@_K@Z
    ?ThrowBadVariantAccess@variant_internal@absl@@YAXXZ
    ?ThrowStdBadAlloc@base_internal@absl@@YAXXZ
    ?ThrowStdBadFunctionCall@base_internal@absl@@YAXXZ
    ?ThrowStdDomainError@base_internal@absl@@YAXAEBV?$basic_string@DU?$char_traits@D@__1@std@@V?$allocator@D@23@@__1@std@@@Z
    ?ThrowStdDomainError@base_internal@absl@@YAXPEBD@Z
    ?ThrowStdInvalidArgument@base_internal@absl@@YAXAEBV?$basic_string@DU?$char_traits@D@__1@std@@V?$allocator@D@23@@__1@std@@@Z
    ?ThrowStdInvalidArgument@base_internal@absl@@YAXPEBD@Z
    ?ThrowStdLengthError@base_internal@absl@@YAXAEBV?$basic_string@DU?$char_traits@D@__1@std@@V?$allocator@D@23@@__1@std@@@Z
    ?ThrowStdLengthError@base_internal@absl@@YAXPEBD@Z
    ?ThrowStdLogicError@base_internal@absl@@YAXAEBV?$basic_string@DU?$char_traits@D@__1@std@@V?$allocator@D@23@@__1@std@@@Z
    ?ThrowStdLogicError@base_internal@absl@@YAXPEBD@Z
    ?ThrowStdOutOfRange@base_internal@absl@@YAXAEBV?$basic_string@DU?$char_traits@D@__1@std@@V?$allocator@D@23@@__1@std@@@Z
    ?ThrowStdOutOfRange@base_internal@absl@@YAXPEBD@Z
    ?ThrowStdOverflowError@base_internal@absl@@YAXAEBV?$basic_string@DU?$char_traits@D@__1@std@@V?$allocator@D@23@@__1@std@@@Z
    ?ThrowStdOverflowError@base_internal@absl@@YAXPEBD@Z
    ?ThrowStdRangeError@base_internal@absl@@YAXAEBV?$basic_string@DU?$char_traits@D@__1@std@@V?$allocator@D@23@@__1@std@@@Z
    ?ThrowStdRangeError@base_internal@absl@@YAXPEBD@Z
    ?ThrowStdRuntimeError@base_internal@absl@@YAXAEBV?$basic_string@DU?$char_traits@D@__1@std@@V?$allocator@D@23@@__1@std@@@Z
    ?ThrowStdRuntimeError@base_internal@absl@@YAXPEBD@Z
    ?ThrowStdUnderflowError@base_internal@absl@@YAXAEBV?$basic_string@DU?$char_traits@D@__1@std@@V?$allocator@D@23@@__1@std@@@Z
    ?ThrowStdUnderflowError@base_internal@absl@@YAXPEBD@Z
    ?ToHost16@big_endian@absl@@YAGG@Z
    ?ToHost32@big_endian@absl@@YAII@Z
    ?ToHost32@little_endian@absl@@YAII@Z
    ?ToHost64@little_endian@absl@@YA_K_K@Z
    ?ToString@?$BigUnsigned@$03@strings_internal@absl@@QEBA?AV?$basic_string@DU?$char_traits@D@__1@std@@V?$allocator@D@23@@__1@std@@XZ
    ?ToString@?$BigUnsigned@$0FE@@strings_internal@absl@@QEBA?AV?$basic_string@DU?$char_traits@D@__1@std@@V?$allocator@D@23@@__1@std@@XZ
    ?TryLockInternal@SpinLock@base_internal@absl@@AEAAIII@Z
    ?Uint128High64@absl@@YA_KVuint128@1@@Z
    ?Uint128High64@hash_internal@absl@@YA_KAEBU?$pair@_K_K@__1@std@@@Z
    ?Uint128Low64@absl@@YA_KVuint128@1@@Z
    ?Uint128Low64@hash_internal@absl@@YA_KAEBU?$pair@_K_K@__1@std@@@Z
    ?Uint128Max@absl@@YA?AVuint128@1@XZ
    ?UnalignedLoad16@base_internal@absl@@YAGPEBX@Z
    ?UnalignedLoad32@base_internal@absl@@YAIPEBX@Z
    ?UnalignedLoad64@base_internal@absl@@YA_KPEBX@Z
    ?Utf8SafeCEscape@absl@@YA?AV?$basic_string@DU?$char_traits@D@__1@std@@V?$allocator@D@23@@__1@std@@Vstring_view@1@@Z
    ?Utf8SafeCHexEscape@absl@@YA?AV?$basic_string@DU?$char_traits@D@__1@std@@V?$allocator@D@23@@__1@std@@Vstring_view@1@@Z
    ?WebSafeBase64Escape@absl@@YA?AV?$basic_string@DU?$char_traits@D@__1@std@@V?$allocator@D@23@@__1@std@@Vstring_view@1@@Z
    ?WebSafeBase64Escape@absl@@YAXVstring_view@1@PEAV?$basic_string@DU?$char_traits@D@__1@std@@V?$allocator@D@23@@__1@std@@@Z
    ?WebSafeBase64Unescape@absl@@YA_NVstring_view@1@PEAV?$basic_string@DU?$char_traits@D@__1@std@@V?$allocator@D@23@@__1@std@@@Z
    ?__alloc@?$__split_buffer@UViableSubstitution@strings_internal@absl@@AEAV?$allocator@UViableSubstitution@strings_internal@absl@@@__1@std@@@__1@std@@QEAAAEAV?$allocator@UViableSubstitution@strings_internal@absl@@@23@XZ
    ?__alloc@?$__vector_base@UViableSubstitution@strings_internal@absl@@V?$allocator@UViableSubstitution@strings_internal@absl@@@__1@std@@@__1@std@@IEAAAEAV?$allocator@UViableSubstitution@strings_internal@absl@@@23@XZ
    ?__alloc@?$__vector_base@UViableSubstitution@strings_internal@absl@@V?$allocator@UViableSubstitution@strings_internal@absl@@@__1@std@@@__1@std@@IEBAAEBV?$allocator@UViableSubstitution@strings_internal@absl@@@23@XZ
    ?__annotate_contiguous_container@?$vector@UViableSubstitution@strings_internal@absl@@V?$allocator@UViableSubstitution@strings_internal@absl@@@__1@std@@@__1@std@@AEBAXPEBX000@Z
    ?__annotate_delete@?$vector@UViableSubstitution@strings_internal@absl@@V?$allocator@UViableSubstitution@strings_internal@absl@@@__1@std@@@__1@std@@AEBAXXZ
    ?__annotate_new@?$vector@UViableSubstitution@strings_internal@absl@@V?$allocator@UViableSubstitution@strings_internal@absl@@@__1@std@@@__1@std@@AEBAX_K@Z
    ?__annotate_shrink@?$vector@UViableSubstitution@strings_internal@absl@@V?$allocator@UViableSubstitution@strings_internal@absl@@@__1@std@@@__1@std@@AEBAX_K@Z
    ?__destruct_at_end@?$__split_buffer@UViableSubstitution@strings_internal@absl@@AEAV?$allocator@UViableSubstitution@strings_internal@absl@@@__1@std@@@__1@std@@QEAAXPEAUViableSubstitution@strings_internal@absl@@@Z
    ?__destruct_at_end@?$__split_buffer@UViableSubstitution@strings_internal@absl@@AEAV?$allocator@UViableSubstitution@strings_internal@absl@@@__1@std@@@__1@std@@QEAAXPEAUViableSubstitution@strings_internal@absl@@U?$integral_constant@_N$0A@@23@@Z
    ?__destruct_at_end@?$__vector_base@UViableSubstitution@strings_internal@absl@@V?$allocator@UViableSubstitution@strings_internal@absl@@@__1@std@@@__1@std@@IEAAXPEAUViableSubstitution@strings_internal@absl@@@Z
    ?__destruct_at_end@?$vector@UViableSubstitution@strings_internal@absl@@V?$allocator@UViableSubstitution@strings_internal@absl@@@__1@std@@@__1@std@@AEAAXPEAUViableSubstitution@strings_internal@absl@@@Z
    ?__end_cap@?$__split_buffer@UViableSubstitution@strings_internal@absl@@AEAV?$allocator@UViableSubstitution@strings_internal@absl@@@__1@std@@@__1@std@@QEAAAEAPEAUViableSubstitution@strings_internal@absl@@XZ
    ?__end_cap@?$__split_buffer@UViableSubstitution@strings_internal@absl@@AEAV?$allocator@UViableSubstitution@strings_internal@absl@@@__1@std@@@__1@std@@QEBAAEBQEAUViableSubstitution@strings_internal@absl@@XZ
    ?__end_cap@?$__vector_base@UViableSubstitution@strings_internal@absl@@V?$allocator@UViableSubstitution@strings_internal@absl@@@__1@std@@@__1@std@@IEAAAEAPEAUViableSubstitution@strings_internal@absl@@XZ
    ?__end_cap@?$__vector_base@UViableSubstitution@strings_internal@absl@@V?$allocator@UViableSubstitution@strings_internal@absl@@@__1@std@@@__1@std@@IEBAAEBQEAUViableSubstitution@strings_internal@absl@@XZ
    ?__get@?$__compressed_pair_elem@AEAV?$allocator@UViableSubstitution@strings_internal@absl@@@__1@std@@$00$0A@@__1@std@@QEAAAEAV?$allocator@UViableSubstitution@strings_internal@absl@@@23@XZ
    ?__get@?$__compressed_pair_elem@PEAUThreadIdentity@base_internal@absl@@$0A@$0A@@__1@std@@QEAAAEAPEAUThreadIdentity@base_internal@absl@@XZ
    ?__get@?$__compressed_pair_elem@PEAUViableSubstitution@strings_internal@absl@@$0A@$0A@@__1@std@@QEAAAEAPEAUViableSubstitution@strings_internal@absl@@XZ
    ?__get@?$__compressed_pair_elem@PEAUViableSubstitution@strings_internal@absl@@$0A@$0A@@__1@std@@QEBAAEBQEAUViableSubstitution@strings_internal@absl@@XZ
    ?__get@?$__compressed_pair_elem@V?$allocator@UViableSubstitution@strings_internal@absl@@@__1@std@@$00$00@__1@std@@QEAAAEAV?$allocator@UViableSubstitution@strings_internal@absl@@@23@XZ
    ?__get@?$__compressed_pair_elem@V?$allocator@UViableSubstitution@strings_internal@absl@@@__1@std@@$00$00@__1@std@@QEBAAEBV?$allocator@UViableSubstitution@strings_internal@absl@@@23@XZ
    ?__invalidate_all_iterators@?$vector@UViableSubstitution@strings_internal@absl@@V?$allocator@UViableSubstitution@strings_internal@absl@@@__1@std@@@__1@std@@AEAAXXZ
    ?__invalidate_iterators_past@?$vector@UViableSubstitution@strings_internal@absl@@V?$allocator@UViableSubstitution@strings_internal@absl@@@__1@std@@@__1@std@@AEAAXPEAUViableSubstitution@strings_internal@absl@@@Z
    ?__max_size@?$allocator_traits@V?$allocator@UViableSubstitution@strings_internal@absl@@@__1@std@@@__1@std@@CA_KU?$integral_constant@_N$00@23@AEBV?$allocator@UViableSubstitution@strings_internal@absl@@@23@@Z
    ?__recommend@?$vector@UViableSubstitution@strings_internal@absl@@V?$allocator@UViableSubstitution@strings_internal@absl@@@__1@std@@@__1@std@@AEBA_K_K@Z
    ?__swap_out_circular_buffer@?$vector@UViableSubstitution@strings_internal@absl@@V?$allocator@UViableSubstitution@strings_internal@absl@@@__1@std@@@__1@std@@AEAAXAEAU?$__split_buffer@UViableSubstitution@strings_internal@absl@@AEAV?$allocator@UViableSubstitution@strings_internal@absl@@@__1@std@@@23@@Z
    ?allocate@?$allocator@UViableSubstitution@strings_internal@absl@@@__1@std@@QEAAPEAUViableSubstitution@strings_internal@absl@@_KPEBX@Z
    ?allocate@?$allocator_traits@V?$allocator@UViableSubstitution@strings_internal@absl@@@__1@std@@@__1@std@@SAPEAUViableSubstitution@strings_internal@absl@@AEAV?$allocator@UViableSubstitution@strings_internal@absl@@@23@_K@Z
    ?ascii_isdigit@absl@@YA_NE@Z
    ?ascii_isprint@absl@@YA_NE@Z
    ?ascii_isspace@absl@@YA_NE@Z
    ?ascii_isxdigit@absl@@YA_NE@Z
    ?ascii_tolower@absl@@YADE@Z
    ?ascii_toupper@absl@@YADE@Z
    ?back@?$vector@UViableSubstitution@strings_internal@absl@@V?$allocator@UViableSubstitution@strings_internal@absl@@@__1@std@@@__1@std@@QEAAAEAUViableSubstitution@strings_internal@absl@@XZ
    ?begin@?$initializer_list@U?$pair@Vstring_view@absl@@V12@@__1@std@@@std@@QEBAPEBU?$pair@Vstring_view@absl@@V12@@__1@2@XZ
    ?begin@?$initializer_list@Vstring_view@absl@@@std@@QEBAPEBVstring_view@absl@@XZ
    ?begin@string_view@absl@@QEBAPEBDXZ
    ?capacity@?$__split_buffer@UViableSubstitution@strings_internal@absl@@AEAV?$allocator@UViableSubstitution@strings_internal@absl@@@__1@std@@@__1@std@@QEBA_KXZ
    ?capacity@?$__vector_base@UViableSubstitution@strings_internal@absl@@V?$allocator@UViableSubstitution@strings_internal@absl@@@__1@std@@@__1@std@@IEBA_KXZ
    ?capacity@?$vector@UViableSubstitution@strings_internal@absl@@V?$allocator@UViableSubstitution@strings_internal@absl@@@__1@std@@@__1@std@@QEBA_KXZ
    ?clear@?$__split_buffer@UViableSubstitution@strings_internal@absl@@AEAV?$allocator@UViableSubstitution@strings_internal@absl@@@__1@std@@@__1@std@@QEAAXXZ
    ?clear@?$__vector_base@UViableSubstitution@strings_internal@absl@@V?$allocator@UViableSubstitution@strings_internal@absl@@@__1@std@@@__1@std@@IEAAXXZ
    ?data@?$vector@UViableSubstitution@strings_internal@absl@@V?$allocator@UViableSubstitution@strings_internal@absl@@@__1@std@@@__1@std@@QEBAPEBUViableSubstitution@strings_internal@absl@@XZ
    ?data@AlphaNum@absl@@QEBAPEBDXZ
    ?data@string_view@absl@@QEBAPEBDXZ
    ?deallocate@?$allocator@UViableSubstitution@strings_internal@absl@@@__1@std@@QEAAXPEAUViableSubstitution@strings_internal@absl@@_K@Z
    ?deallocate@?$allocator_traits@V?$allocator@UViableSubstitution@strings_internal@absl@@@__1@std@@@__1@std@@SAXAEAV?$allocator@UViableSubstitution@strings_internal@absl@@@23@PEAUViableSubstitution@strings_internal@absl@@_K@Z
    ?destroy@?$allocator@UViableSubstitution@strings_internal@absl@@@__1@std@@QEAAXPEAUViableSubstitution@strings_internal@absl@@@Z
    ?empty@?$vector@UViableSubstitution@strings_internal@absl@@V?$allocator@UViableSubstitution@strings_internal@absl@@@__1@std@@@__1@std@@QEBA_NXZ
    ?empty@string_view@absl@@QEBA_NXZ
    ?end@?$initializer_list@U?$pair@Vstring_view@absl@@V12@@__1@std@@@std@@QEBAPEBU?$pair@Vstring_view@absl@@V12@@__1@2@XZ
    ?end@?$initializer_list@Vstring_view@absl@@@std@@QEBAPEBVstring_view@absl@@XZ
    ?end@string_view@absl@@QEBAPEBDXZ
    ?find@string_view@absl@@QEBA_KD_K@Z
    ?find@string_view@absl@@QEBA_KV12@_K@Z
    ?find_first_not_of@string_view@absl@@QEBA_KD_K@Z
    ?find_first_not_of@string_view@absl@@QEBA_KV12@_K@Z
    ?find_first_of@string_view@absl@@QEBA_KD_K@Z
    ?find_first_of@string_view@absl@@QEBA_KV12@_K@Z
    ?find_last_not_of@string_view@absl@@QEBA_KD_K@Z
    ?find_last_not_of@string_view@absl@@QEBA_KV12@_K@Z
    ?find_last_of@string_view@absl@@QEBA_KD_K@Z
    ?find_last_of@string_view@absl@@QEBA_KV12@_K@Z
    ?first@?$__compressed_pair@PEAUThreadIdentity@base_internal@absl@@P6AXPEAX@Z@__1@std@@QEAAAEAPEAUThreadIdentity@base_internal@absl@@XZ
    ?first@?$__compressed_pair@PEAUViableSubstitution@strings_internal@absl@@AEAV?$allocator@UViableSubstitution@strings_internal@absl@@@__1@std@@@__1@std@@QEAAAEAPEAUViableSubstitution@strings_internal@absl@@XZ
    ?first@?$__compressed_pair@PEAUViableSubstitution@strings_internal@absl@@AEAV?$allocator@UViableSubstitution@strings_internal@absl@@@__1@std@@@__1@std@@QEBAAEBQEAUViableSubstitution@strings_internal@absl@@XZ
    ?first@?$__compressed_pair@PEAUViableSubstitution@strings_internal@absl@@V?$allocator@UViableSubstitution@strings_internal@absl@@@__1@std@@@__1@std@@QEAAAEAPEAUViableSubstitution@strings_internal@absl@@XZ
    ?first@?$__compressed_pair@PEAUViableSubstitution@strings_internal@absl@@V?$allocator@UViableSubstitution@strings_internal@absl@@@__1@std@@@__1@std@@QEBAAEBQEAUViableSubstitution@strings_internal@absl@@XZ
    ?from_chars@absl@@YA?AUfrom_chars_result@1@PEBD0AEAMW4chars_format@1@@Z
    ?from_chars@absl@@YA?AUfrom_chars_result@1@PEBD0AEANW4chars_format@1@@Z
    ?gbswap_16@absl@@YAGG@Z
    ?gbswap_32@absl@@YAII@Z
    ?gbswap_64@absl@@YA_K_K@Z
    ?length@string_view@absl@@QEBA_KXZ
    ?max@?$numeric_limits@Vuint128@absl@@@__1@std@@SA?AVuint128@absl@@XZ
    ?max_size@?$allocator@UViableSubstitution@strings_internal@absl@@@__1@std@@QEBA_KXZ
    ?max_size@?$allocator_traits@V?$allocator@UViableSubstitution@strings_internal@absl@@@__1@std@@@__1@std@@SA_KAEBV?$allocator@UViableSubstitution@strings_internal@absl@@@23@@Z
    ?max_size@?$vector@UViableSubstitution@strings_internal@absl@@V?$allocator@UViableSubstitution@strings_internal@absl@@@__1@std@@@__1@std@@QEBA_KXZ
    ?memcasecmp@strings_internal@absl@@YAHPEBD0_K@Z
    ?memcspn@strings_internal@absl@@YA_KPEBD_K0@Z
    ?memdup@strings_internal@absl@@YAPEADPEBD_K@Z
    ?memmatch@strings_internal@absl@@YAPEBDPEBD_K01@Z
    ?mempbrk@strings_internal@absl@@YAPEADPEBD_K0@Z
    ?memrchr@strings_internal@absl@@YAPEADPEBDH_K@Z
    ?memspn@strings_internal@absl@@YA_KPEBD_K0@Z
    ?overflow@OStringStream@strings_internal@absl@@EEAAHH@Z
    ?pop_back@?$vector@UViableSubstitution@strings_internal@absl@@V?$allocator@UViableSubstitution@strings_internal@absl@@@__1@std@@@__1@std@@QEAAXXZ
    ?rbegin@string_view@absl@@QEBA?AV?$reverse_iterator@PEBD@__1@std@@XZ
    ?remove_prefix@string_view@absl@@QEAAX_K@Z
    ?rend@string_view@absl@@QEBA?AV?$reverse_iterator@PEBD@__1@std@@XZ
    ?reserve@?$vector@UViableSubstitution@strings_internal@absl@@V?$allocator@UViableSubstitution@strings_internal@absl@@@__1@std@@@__1@std@@QEAAX_K@Z
    ?reset@?$unique_ptr@UThreadIdentity@base_internal@absl@@P6AXPEAX@Z@__1@std@@QEAAXPEAUThreadIdentity@base_internal@absl@@@Z
    ?rfind@string_view@absl@@QEBA_KD_K@Z
    ?rfind@string_view@absl@@QEBA_KV12@_K@Z
    ?safe_strto32_base@numbers_internal@absl@@YA_NVstring_view@2@PEAHH@Z
    ?safe_strto64_base@numbers_internal@absl@@YA_NVstring_view@2@PEA_JH@Z
    ?safe_strtou128_base@numbers_internal@absl@@YA_NVstring_view@2@PEAVuint128@2@H@Z
    ?safe_strtou32_base@numbers_internal@absl@@YA_NVstring_view@2@PEAIH@Z
    ?safe_strtou64_base@numbers_internal@absl@@YA_NVstring_view@2@PEA_KH@Z
    ?second@?$__compressed_pair@PEAUThreadIdentity@base_internal@absl@@P6AXPEAX@Z@__1@std@@QEAAAEAP6AXPEAX@ZXZ
    ?second@?$__compressed_pair@PEAUViableSubstitution@strings_internal@absl@@AEAV?$allocator@UViableSubstitution@strings_internal@absl@@@__1@std@@@__1@std@@QEAAAEAV?$allocator@UViableSubstitution@strings_internal@absl@@@23@XZ
    ?second@?$__compressed_pair@PEAUViableSubstitution@strings_internal@absl@@V?$allocator@UViableSubstitution@strings_internal@absl@@@__1@std@@@__1@std@@QEAAAEAV?$allocator@UViableSubstitution@strings_internal@absl@@@23@XZ
    ?second@?$__compressed_pair@PEAUViableSubstitution@strings_internal@absl@@V?$allocator@UViableSubstitution@strings_internal@absl@@@__1@std@@@__1@std@@QEBAAEBV?$allocator@UViableSubstitution@strings_internal@absl@@@23@XZ
    ?size@?$BigUnsigned@$03@strings_internal@absl@@QEBAHXZ
    ?size@?$BigUnsigned@$0FE@@strings_internal@absl@@QEBAHXZ
    ?size@?$initializer_list@U?$pair@Vstring_view@absl@@V12@@__1@std@@@std@@QEBA_KXZ
    ?size@?$vector@UViableSubstitution@strings_internal@absl@@V?$allocator@UViableSubstitution@strings_internal@absl@@@__1@std@@@__1@std@@QEBA_KXZ
    ?size@AlphaNum@absl@@QEBA_KXZ
    ?size@string_view@absl@@QEBA_KXZ
    ?substr@string_view@absl@@QEBA?AV12@_K0@Z
    ?throw_bad_optional_access@optional_internal@absl@@YAXXZ
    ?what@bad_optional_access@absl@@UEBAPEBDXZ
    ?what@bad_variant_access@absl@@UEBAPEBDXZ
    ?words@?$BigUnsigned@$03@strings_internal@absl@@QEBAPEBIXZ
    ?words@?$BigUnsigned@$0FE@@strings_internal@absl@@QEBAPEBIXZ
    ?xsputn@OStringStream@strings_internal@absl@@EEAA_JPEBD_J@Z
